; ModuleID = 'test1.cpp'
source_filename = "test1.cpp"
target datalayout = "e-m:e-p270:32:32-p271:32:32-p272:64:64-i64:64-f80:128-n8:16:32:64-S128"
target triple = "x86_64-unknown-linux-gnu"

%"class.std::ios_base::Init" = type { i8 }
%"class.std::basic_ostream" = type { i32 (...)**, %"class.std::basic_ios" }
%"class.std::basic_ios" = type { %"class.std::ios_base", %"class.std::basic_ostream"*, i8, i8, %"class.std::basic_streambuf"*, %"class.std::ctype"*, %"class.std::num_put"*, %"class.std::num_get"* }
%"class.std::ios_base" = type { i32 (...)**, i64, i64, i32, i32, i32, %"struct.std::ios_base::_Callback_list"*, %"struct.std::ios_base::_Words", [8 x %"struct.std::ios_base::_Words"], i32, %"struct.std::ios_base::_Words"*, %"class.std::locale" }
%"struct.std::ios_base::_Callback_list" = type { %"struct.std::ios_base::_Callback_list"*, void (i32, %"class.std::ios_base"*, i32)*, i32, i32 }
%"struct.std::ios_base::_Words" = type { i8*, i64 }
%"class.std::locale" = type { %"class.std::locale::_Impl"* }
%"class.std::locale::_Impl" = type { i32, %"class.std::locale::facet"**, i64, %"class.std::locale::facet"**, i8** }
%"class.std::locale::facet" = type <{ i32 (...)**, i32, [4 x i8] }>
%"class.std::basic_streambuf" = type { i32 (...)**, i8*, i8*, i8*, i8*, i8*, i8*, %"class.std::locale" }
%"class.std::ctype" = type <{ %"class.std::locale::facet.base", [4 x i8], %struct.__locale_struct*, i8, [7 x i8], i32*, i32*, i16*, i8, [256 x i8], [256 x i8], i8, [6 x i8] }>
%"class.std::locale::facet.base" = type <{ i32 (...)**, i32 }>
%struct.__locale_struct = type { [13 x %struct.__locale_data*], i16*, i32*, i32*, [13 x i8*] }
%struct.__locale_data = type opaque
%"class.std::num_put" = type { %"class.std::locale::facet.base", [4 x i8] }
%"class.std::num_get" = type { %"class.std::locale::facet.base", [4 x i8] }

@_ZStL8__ioinit = internal global %"class.std::ios_base::Init" zeroinitializer, align 1
@__dso_handle = external hidden global i8
@_ZSt4cout = external dso_local global %"class.std::basic_ostream", align 8
@.str = private unnamed_addr constant [4 x i8] c" c \00", align 1
@.str.1 = private unnamed_addr constant [12 x i8] c"value is : \00", align 1
@llvm.global_ctors = appending global [1 x { i32, void ()*, i8* }] [{ i32, void ()*, i8* } { i32 65535, void ()* @_GLOBAL__sub_I_test1.cpp, i8* null }]

declare dso_local void @_ZNSt8ios_base4InitC1Ev(%"class.std::ios_base::Init"* nonnull dereferenceable(1)) unnamed_addr #0

; Function Attrs: nounwind
declare dso_local void @_ZNSt8ios_base4InitD1Ev(%"class.std::ios_base::Init"* nonnull dereferenceable(1)) unnamed_addr #1

; Function Attrs: nofree nounwind
declare dso_local i32 @__cxa_atexit(void (i8*)*, i8*, i8*) local_unnamed_addr #2

; Function Attrs: nounwind readnone uwtable willreturn mustprogress
define dso_local i32 @_Z9factoriali(i32 %0) local_unnamed_addr #3 {
  %2 = icmp ult i32 %0, 2
  br i1 %2, label %75, label %3

3:                                                ; preds = %1
  %4 = add i32 %0, -1
  %5 = icmp ult i32 %4, 8
  br i1 %5, label %66, label %6

6:                                                ; preds = %3
  %7 = and i32 %4, -8
  %8 = sub i32 %0, %7
  %9 = insertelement <4 x i32> poison, i32 %0, i32 0
  %10 = shufflevector <4 x i32> %9, <4 x i32> poison, <4 x i32> zeroinitializer
  %11 = add <4 x i32> %10, <i32 0, i32 -1, i32 -2, i32 -3>
  %12 = add i32 %7, -8
  %13 = lshr exact i32 %12, 3
  %14 = add nuw nsw i32 %13, 1
  %15 = and i32 %14, 3
  %16 = icmp ult i32 %12, 24
  br i1 %16, label %42, label %17

17:                                               ; preds = %6
  %18 = and i32 %14, 1073741820
  br label %19

19:                                               ; preds = %19, %17
  %20 = phi <4 x i32> [ %11, %17 ], [ %39, %19 ]
  %21 = phi <4 x i32> [ <i32 1, i32 1, i32 1, i32 1>, %17 ], [ %37, %19 ]
  %22 = phi <4 x i32> [ <i32 1, i32 1, i32 1, i32 1>, %17 ], [ %38, %19 ]
  %23 = phi i32 [ %18, %17 ], [ %40, %19 ]
  %24 = add <4 x i32> %20, <i32 -4, i32 -4, i32 -4, i32 -4>
  %25 = mul <4 x i32> %20, %21
  %26 = mul <4 x i32> %24, %22
  %27 = add <4 x i32> %20, <i32 -8, i32 -8, i32 -8, i32 -8>
  %28 = add <4 x i32> %20, <i32 -12, i32 -12, i32 -12, i32 -12>
  %29 = mul <4 x i32> %27, %25
  %30 = mul <4 x i32> %28, %26
  %31 = add <4 x i32> %20, <i32 -16, i32 -16, i32 -16, i32 -16>
  %32 = add <4 x i32> %20, <i32 -20, i32 -20, i32 -20, i32 -20>
  %33 = mul <4 x i32> %31, %29
  %34 = mul <4 x i32> %32, %30
  %35 = add <4 x i32> %20, <i32 -24, i32 -24, i32 -24, i32 -24>
  %36 = add <4 x i32> %20, <i32 -28, i32 -28, i32 -28, i32 -28>
  %37 = mul <4 x i32> %35, %33
  %38 = mul <4 x i32> %36, %34
  %39 = add <4 x i32> %20, <i32 -32, i32 -32, i32 -32, i32 -32>
  %40 = add i32 %23, -4
  %41 = icmp eq i32 %40, 0
  br i1 %41, label %42, label %19, !llvm.loop !2

42:                                               ; preds = %19, %6
  %43 = phi <4 x i32> [ undef, %6 ], [ %37, %19 ]
  %44 = phi <4 x i32> [ undef, %6 ], [ %38, %19 ]
  %45 = phi <4 x i32> [ %11, %6 ], [ %39, %19 ]
  %46 = phi <4 x i32> [ <i32 1, i32 1, i32 1, i32 1>, %6 ], [ %37, %19 ]
  %47 = phi <4 x i32> [ <i32 1, i32 1, i32 1, i32 1>, %6 ], [ %38, %19 ]
  %48 = icmp eq i32 %15, 0
  br i1 %48, label %60, label %49

49:                                               ; preds = %42, %49
  %50 = phi <4 x i32> [ %57, %49 ], [ %45, %42 ]
  %51 = phi <4 x i32> [ %55, %49 ], [ %46, %42 ]
  %52 = phi <4 x i32> [ %56, %49 ], [ %47, %42 ]
  %53 = phi i32 [ %58, %49 ], [ %15, %42 ]
  %54 = add <4 x i32> %50, <i32 -4, i32 -4, i32 -4, i32 -4>
  %55 = mul <4 x i32> %50, %51
  %56 = mul <4 x i32> %54, %52
  %57 = add <4 x i32> %50, <i32 -8, i32 -8, i32 -8, i32 -8>
  %58 = add i32 %53, -1
  %59 = icmp eq i32 %58, 0
  br i1 %59, label %60, label %49, !llvm.loop !4

60:                                               ; preds = %49, %42
  %61 = phi <4 x i32> [ %43, %42 ], [ %55, %49 ]
  %62 = phi <4 x i32> [ %44, %42 ], [ %56, %49 ]
  %63 = mul <4 x i32> %62, %61
  %64 = call i32 @llvm.vector.reduce.mul.v4i32(<4 x i32> %63)
  %65 = icmp eq i32 %4, %7
  br i1 %65, label %75, label %66

66:                                               ; preds = %3, %60
  %67 = phi i32 [ %0, %3 ], [ %8, %60 ]
  %68 = phi i32 [ 1, %3 ], [ %64, %60 ]
  br label %69

69:                                               ; preds = %66, %69
  %70 = phi i32 [ %72, %69 ], [ %67, %66 ]
  %71 = phi i32 [ %73, %69 ], [ %68, %66 ]
  %72 = add nsw i32 %70, -1
  %73 = mul nsw i32 %70, %71
  %74 = icmp ult i32 %72, 2
  br i1 %74, label %75, label %69, !llvm.loop !6

75:                                               ; preds = %69, %60, %1
  %76 = phi i32 [ 1, %1 ], [ %64, %60 ], [ %73, %69 ]
  ret i32 %76
}

; Function Attrs: norecurse nounwind readnone uwtable willreturn mustprogress
define dso_local i32 @_Z5n_c_rii(i32 %0, i32 %1) local_unnamed_addr #4 {
  %3 = icmp ult i32 %0, 2
  br i1 %3, label %76, label %4

4:                                                ; preds = %2
  %5 = add i32 %0, -1
  %6 = icmp ult i32 %5, 8
  br i1 %6, label %67, label %7

7:                                                ; preds = %4
  %8 = and i32 %5, -8
  %9 = sub i32 %0, %8
  %10 = insertelement <4 x i32> poison, i32 %0, i32 0
  %11 = shufflevector <4 x i32> %10, <4 x i32> poison, <4 x i32> zeroinitializer
  %12 = add <4 x i32> %11, <i32 0, i32 -1, i32 -2, i32 -3>
  %13 = add i32 %8, -8
  %14 = lshr exact i32 %13, 3
  %15 = add nuw nsw i32 %14, 1
  %16 = and i32 %15, 3
  %17 = icmp ult i32 %13, 24
  br i1 %17, label %43, label %18

18:                                               ; preds = %7
  %19 = and i32 %15, 1073741820
  br label %20

20:                                               ; preds = %20, %18
  %21 = phi <4 x i32> [ %12, %18 ], [ %40, %20 ]
  %22 = phi <4 x i32> [ <i32 1, i32 1, i32 1, i32 1>, %18 ], [ %38, %20 ]
  %23 = phi <4 x i32> [ <i32 1, i32 1, i32 1, i32 1>, %18 ], [ %39, %20 ]
  %24 = phi i32 [ %19, %18 ], [ %41, %20 ]
  %25 = add <4 x i32> %21, <i32 -4, i32 -4, i32 -4, i32 -4>
  %26 = mul <4 x i32> %22, %21
  %27 = mul <4 x i32> %23, %25
  %28 = add <4 x i32> %21, <i32 -8, i32 -8, i32 -8, i32 -8>
  %29 = add <4 x i32> %21, <i32 -12, i32 -12, i32 -12, i32 -12>
  %30 = mul <4 x i32> %26, %28
  %31 = mul <4 x i32> %27, %29
  %32 = add <4 x i32> %21, <i32 -16, i32 -16, i32 -16, i32 -16>
  %33 = add <4 x i32> %21, <i32 -20, i32 -20, i32 -20, i32 -20>
  %34 = mul <4 x i32> %30, %32
  %35 = mul <4 x i32> %31, %33
  %36 = add <4 x i32> %21, <i32 -24, i32 -24, i32 -24, i32 -24>
  %37 = add <4 x i32> %21, <i32 -28, i32 -28, i32 -28, i32 -28>
  %38 = mul <4 x i32> %34, %36
  %39 = mul <4 x i32> %35, %37
  %40 = add <4 x i32> %21, <i32 -32, i32 -32, i32 -32, i32 -32>
  %41 = add i32 %24, -4
  %42 = icmp eq i32 %41, 0
  br i1 %42, label %43, label %20, !llvm.loop !8

43:                                               ; preds = %20, %7
  %44 = phi <4 x i32> [ undef, %7 ], [ %38, %20 ]
  %45 = phi <4 x i32> [ undef, %7 ], [ %39, %20 ]
  %46 = phi <4 x i32> [ %12, %7 ], [ %40, %20 ]
  %47 = phi <4 x i32> [ <i32 1, i32 1, i32 1, i32 1>, %7 ], [ %38, %20 ]
  %48 = phi <4 x i32> [ <i32 1, i32 1, i32 1, i32 1>, %7 ], [ %39, %20 ]
  %49 = icmp eq i32 %16, 0
  br i1 %49, label %61, label %50

50:                                               ; preds = %43, %50
  %51 = phi <4 x i32> [ %58, %50 ], [ %46, %43 ]
  %52 = phi <4 x i32> [ %56, %50 ], [ %47, %43 ]
  %53 = phi <4 x i32> [ %57, %50 ], [ %48, %43 ]
  %54 = phi i32 [ %59, %50 ], [ %16, %43 ]
  %55 = add <4 x i32> %51, <i32 -4, i32 -4, i32 -4, i32 -4>
  %56 = mul <4 x i32> %52, %51
  %57 = mul <4 x i32> %53, %55
  %58 = add <4 x i32> %51, <i32 -8, i32 -8, i32 -8, i32 -8>
  %59 = add i32 %54, -1
  %60 = icmp eq i32 %59, 0
  br i1 %60, label %61, label %50, !llvm.loop !9

61:                                               ; preds = %50, %43
  %62 = phi <4 x i32> [ %44, %43 ], [ %56, %50 ]
  %63 = phi <4 x i32> [ %45, %43 ], [ %57, %50 ]
  %64 = mul <4 x i32> %63, %62
  %65 = call i32 @llvm.vector.reduce.mul.v4i32(<4 x i32> %64)
  %66 = icmp eq i32 %5, %8
  br i1 %66, label %76, label %67

67:                                               ; preds = %4, %61
  %68 = phi i32 [ %0, %4 ], [ %9, %61 ]
  %69 = phi i32 [ 1, %4 ], [ %65, %61 ]
  br label %70

70:                                               ; preds = %67, %70
  %71 = phi i32 [ %73, %70 ], [ %68, %67 ]
  %72 = phi i32 [ %74, %70 ], [ %69, %67 ]
  %73 = add nsw i32 %71, -1
  %74 = mul nsw i32 %72, %71
  %75 = icmp ult i32 %73, 2
  br i1 %75, label %76, label %70, !llvm.loop !10

76:                                               ; preds = %70, %61, %2
  %77 = phi i32 [ 1, %2 ], [ %65, %61 ], [ %74, %70 ]
  %78 = icmp ult i32 %1, 2
  br i1 %78, label %151, label %79

79:                                               ; preds = %76
  %80 = add i32 %1, -1
  %81 = icmp ult i32 %80, 8
  br i1 %81, label %142, label %82

82:                                               ; preds = %79
  %83 = and i32 %80, -8
  %84 = sub i32 %1, %83
  %85 = insertelement <4 x i32> poison, i32 %1, i32 0
  %86 = shufflevector <4 x i32> %85, <4 x i32> poison, <4 x i32> zeroinitializer
  %87 = add <4 x i32> %86, <i32 0, i32 -1, i32 -2, i32 -3>
  %88 = add i32 %83, -8
  %89 = lshr exact i32 %88, 3
  %90 = add nuw nsw i32 %89, 1
  %91 = and i32 %90, 3
  %92 = icmp ult i32 %88, 24
  br i1 %92, label %118, label %93

93:                                               ; preds = %82
  %94 = and i32 %90, 1073741820
  br label %95

95:                                               ; preds = %95, %93
  %96 = phi <4 x i32> [ %87, %93 ], [ %115, %95 ]
  %97 = phi <4 x i32> [ <i32 1, i32 1, i32 1, i32 1>, %93 ], [ %113, %95 ]
  %98 = phi <4 x i32> [ <i32 1, i32 1, i32 1, i32 1>, %93 ], [ %114, %95 ]
  %99 = phi i32 [ %94, %93 ], [ %116, %95 ]
  %100 = add <4 x i32> %96, <i32 -4, i32 -4, i32 -4, i32 -4>
  %101 = mul <4 x i32> %97, %96
  %102 = mul <4 x i32> %98, %100
  %103 = add <4 x i32> %96, <i32 -8, i32 -8, i32 -8, i32 -8>
  %104 = add <4 x i32> %96, <i32 -12, i32 -12, i32 -12, i32 -12>
  %105 = mul <4 x i32> %101, %103
  %106 = mul <4 x i32> %102, %104
  %107 = add <4 x i32> %96, <i32 -16, i32 -16, i32 -16, i32 -16>
  %108 = add <4 x i32> %96, <i32 -20, i32 -20, i32 -20, i32 -20>
  %109 = mul <4 x i32> %105, %107
  %110 = mul <4 x i32> %106, %108
  %111 = add <4 x i32> %96, <i32 -24, i32 -24, i32 -24, i32 -24>
  %112 = add <4 x i32> %96, <i32 -28, i32 -28, i32 -28, i32 -28>
  %113 = mul <4 x i32> %109, %111
  %114 = mul <4 x i32> %110, %112
  %115 = add <4 x i32> %96, <i32 -32, i32 -32, i32 -32, i32 -32>
  %116 = add i32 %99, -4
  %117 = icmp eq i32 %116, 0
  br i1 %117, label %118, label %95, !llvm.loop !11

118:                                              ; preds = %95, %82
  %119 = phi <4 x i32> [ undef, %82 ], [ %113, %95 ]
  %120 = phi <4 x i32> [ undef, %82 ], [ %114, %95 ]
  %121 = phi <4 x i32> [ %87, %82 ], [ %115, %95 ]
  %122 = phi <4 x i32> [ <i32 1, i32 1, i32 1, i32 1>, %82 ], [ %113, %95 ]
  %123 = phi <4 x i32> [ <i32 1, i32 1, i32 1, i32 1>, %82 ], [ %114, %95 ]
  %124 = icmp eq i32 %91, 0
  br i1 %124, label %136, label %125

125:                                              ; preds = %118, %125
  %126 = phi <4 x i32> [ %133, %125 ], [ %121, %118 ]
  %127 = phi <4 x i32> [ %131, %125 ], [ %122, %118 ]
  %128 = phi <4 x i32> [ %132, %125 ], [ %123, %118 ]
  %129 = phi i32 [ %134, %125 ], [ %91, %118 ]
  %130 = add <4 x i32> %126, <i32 -4, i32 -4, i32 -4, i32 -4>
  %131 = mul <4 x i32> %127, %126
  %132 = mul <4 x i32> %128, %130
  %133 = add <4 x i32> %126, <i32 -8, i32 -8, i32 -8, i32 -8>
  %134 = add i32 %129, -1
  %135 = icmp eq i32 %134, 0
  br i1 %135, label %136, label %125, !llvm.loop !12

136:                                              ; preds = %125, %118
  %137 = phi <4 x i32> [ %119, %118 ], [ %131, %125 ]
  %138 = phi <4 x i32> [ %120, %118 ], [ %132, %125 ]
  %139 = mul <4 x i32> %138, %137
  %140 = call i32 @llvm.vector.reduce.mul.v4i32(<4 x i32> %139)
  %141 = icmp eq i32 %80, %83
  br i1 %141, label %151, label %142

142:                                              ; preds = %79, %136
  %143 = phi i32 [ %1, %79 ], [ %84, %136 ]
  %144 = phi i32 [ 1, %79 ], [ %140, %136 ]
  br label %145

145:                                              ; preds = %142, %145
  %146 = phi i32 [ %148, %145 ], [ %143, %142 ]
  %147 = phi i32 [ %149, %145 ], [ %144, %142 ]
  %148 = add nsw i32 %146, -1
  %149 = mul nsw i32 %147, %146
  %150 = icmp ult i32 %148, 2
  br i1 %150, label %151, label %145, !llvm.loop !13

151:                                              ; preds = %145, %136, %76
  %152 = phi i32 [ 1, %76 ], [ %140, %136 ], [ %149, %145 ]
  %153 = sub nsw i32 %0, %1
  %154 = icmp ult i32 %153, 2
  br i1 %154, label %228, label %155

155:                                              ; preds = %151
  %156 = xor i32 %1, -1
  %157 = add i32 %156, %0
  %158 = icmp ult i32 %157, 8
  br i1 %158, label %219, label %159

159:                                              ; preds = %155
  %160 = and i32 %157, -8
  %161 = sub i32 %153, %160
  %162 = insertelement <4 x i32> poison, i32 %153, i32 0
  %163 = shufflevector <4 x i32> %162, <4 x i32> poison, <4 x i32> zeroinitializer
  %164 = add <4 x i32> %163, <i32 0, i32 -1, i32 -2, i32 -3>
  %165 = add i32 %160, -8
  %166 = lshr exact i32 %165, 3
  %167 = add nuw nsw i32 %166, 1
  %168 = and i32 %167, 3
  %169 = icmp ult i32 %165, 24
  br i1 %169, label %195, label %170

170:                                              ; preds = %159
  %171 = and i32 %167, 1073741820
  br label %172

172:                                              ; preds = %172, %170
  %173 = phi <4 x i32> [ %164, %170 ], [ %192, %172 ]
  %174 = phi <4 x i32> [ <i32 1, i32 1, i32 1, i32 1>, %170 ], [ %190, %172 ]
  %175 = phi <4 x i32> [ <i32 1, i32 1, i32 1, i32 1>, %170 ], [ %191, %172 ]
  %176 = phi i32 [ %171, %170 ], [ %193, %172 ]
  %177 = add <4 x i32> %173, <i32 -4, i32 -4, i32 -4, i32 -4>
  %178 = mul <4 x i32> %174, %173
  %179 = mul <4 x i32> %175, %177
  %180 = add <4 x i32> %173, <i32 -8, i32 -8, i32 -8, i32 -8>
  %181 = add <4 x i32> %173, <i32 -12, i32 -12, i32 -12, i32 -12>
  %182 = mul <4 x i32> %178, %180
  %183 = mul <4 x i32> %179, %181
  %184 = add <4 x i32> %173, <i32 -16, i32 -16, i32 -16, i32 -16>
  %185 = add <4 x i32> %173, <i32 -20, i32 -20, i32 -20, i32 -20>
  %186 = mul <4 x i32> %182, %184
  %187 = mul <4 x i32> %183, %185
  %188 = add <4 x i32> %173, <i32 -24, i32 -24, i32 -24, i32 -24>
  %189 = add <4 x i32> %173, <i32 -28, i32 -28, i32 -28, i32 -28>
  %190 = mul <4 x i32> %186, %188
  %191 = mul <4 x i32> %187, %189
  %192 = add <4 x i32> %173, <i32 -32, i32 -32, i32 -32, i32 -32>
  %193 = add i32 %176, -4
  %194 = icmp eq i32 %193, 0
  br i1 %194, label %195, label %172, !llvm.loop !14

195:                                              ; preds = %172, %159
  %196 = phi <4 x i32> [ undef, %159 ], [ %190, %172 ]
  %197 = phi <4 x i32> [ undef, %159 ], [ %191, %172 ]
  %198 = phi <4 x i32> [ %164, %159 ], [ %192, %172 ]
  %199 = phi <4 x i32> [ <i32 1, i32 1, i32 1, i32 1>, %159 ], [ %190, %172 ]
  %200 = phi <4 x i32> [ <i32 1, i32 1, i32 1, i32 1>, %159 ], [ %191, %172 ]
  %201 = icmp eq i32 %168, 0
  br i1 %201, label %213, label %202

202:                                              ; preds = %195, %202
  %203 = phi <4 x i32> [ %210, %202 ], [ %198, %195 ]
  %204 = phi <4 x i32> [ %208, %202 ], [ %199, %195 ]
  %205 = phi <4 x i32> [ %209, %202 ], [ %200, %195 ]
  %206 = phi i32 [ %211, %202 ], [ %168, %195 ]
  %207 = add <4 x i32> %203, <i32 -4, i32 -4, i32 -4, i32 -4>
  %208 = mul <4 x i32> %204, %203
  %209 = mul <4 x i32> %205, %207
  %210 = add <4 x i32> %203, <i32 -8, i32 -8, i32 -8, i32 -8>
  %211 = add i32 %206, -1
  %212 = icmp eq i32 %211, 0
  br i1 %212, label %213, label %202, !llvm.loop !15

213:                                              ; preds = %202, %195
  %214 = phi <4 x i32> [ %196, %195 ], [ %208, %202 ]
  %215 = phi <4 x i32> [ %197, %195 ], [ %209, %202 ]
  %216 = mul <4 x i32> %215, %214
  %217 = call i32 @llvm.vector.reduce.mul.v4i32(<4 x i32> %216)
  %218 = icmp eq i32 %157, %160
  br i1 %218, label %228, label %219

219:                                              ; preds = %155, %213
  %220 = phi i32 [ %153, %155 ], [ %161, %213 ]
  %221 = phi i32 [ 1, %155 ], [ %217, %213 ]
  br label %222

222:                                              ; preds = %219, %222
  %223 = phi i32 [ %225, %222 ], [ %220, %219 ]
  %224 = phi i32 [ %226, %222 ], [ %221, %219 ]
  %225 = add nsw i32 %223, -1
  %226 = mul nsw i32 %224, %223
  %227 = icmp ult i32 %225, 2
  br i1 %227, label %228, label %222, !llvm.loop !16

228:                                              ; preds = %222, %213, %151
  %229 = phi i32 [ 1, %151 ], [ %217, %213 ], [ %226, %222 ]
  %230 = mul nsw i32 %229, %152
  %231 = sdiv i32 %77, %230
  ret i32 %231
}

; Function Attrs: norecurse uwtable mustprogress
define dso_local i32 @main() local_unnamed_addr #5 {
  br label %2

1:                                                ; preds = %189
  ret i32 0

2:                                                ; preds = %0, %189
  %3 = phi i32 [ 0, %0 ], [ %193, %189 ]
  %4 = add nsw i32 %3, -9
  %5 = lshr i32 %4, 3
  %6 = add nuw nsw i32 %5, 1
  %7 = add nsw i32 %3, -1
  %8 = sub nsw i32 10, %3
  %9 = icmp ne i32 %3, 9
  %10 = sext i1 %9 to i32
  %11 = add i32 %8, %10
  %12 = tail call nonnull align 8 dereferenceable(8) %"class.std::basic_ostream"* @_ZNSolsEi(%"class.std::basic_ostream"* nonnull dereferenceable(8) @_ZSt4cout, i32 10)
  %13 = tail call nonnull align 8 dereferenceable(8) %"class.std::basic_ostream"* @_ZSt16__ostream_insertIcSt11char_traitsIcEERSt13basic_ostreamIT_T0_ES6_PKS3_l(%"class.std::basic_ostream"* nonnull align 8 dereferenceable(8) %12, i8* nonnull getelementptr inbounds ([4 x i8], [4 x i8]* @.str, i64 0, i64 0), i64 3)
  %14 = tail call nonnull align 8 dereferenceable(8) %"class.std::basic_ostream"* @_ZNSolsEi(%"class.std::basic_ostream"* nonnull dereferenceable(8) %12, i32 %3)
  %15 = tail call nonnull align 8 dereferenceable(8) %"class.std::basic_ostream"* @_ZSt16__ostream_insertIcSt11char_traitsIcEERSt13basic_ostreamIT_T0_ES6_PKS3_l(%"class.std::basic_ostream"* nonnull align 8 dereferenceable(8) %14, i8* nonnull getelementptr inbounds ([12 x i8], [12 x i8]* @.str.1, i64 0, i64 0), i64 11)
  %16 = icmp ult i32 %3, 2
  br i1 %16, label %88, label %17

17:                                               ; preds = %2
  %18 = icmp ult i32 %7, 8
  br i1 %18, label %76, label %19

19:                                               ; preds = %17
  %20 = and i32 %7, -8
  %21 = sub i32 %3, %20
  %22 = insertelement <4 x i32> poison, i32 %3, i32 0
  %23 = shufflevector <4 x i32> %22, <4 x i32> poison, <4 x i32> zeroinitializer
  %24 = add <4 x i32> %23, <i32 0, i32 -1, i32 -2, i32 -3>
  %25 = and i32 %6, 3
  %26 = icmp ult i32 %4, 24
  br i1 %26, label %52, label %27

27:                                               ; preds = %19
  %28 = and i32 %6, 1073741820
  br label %29

29:                                               ; preds = %29, %27
  %30 = phi <4 x i32> [ %24, %27 ], [ %49, %29 ]
  %31 = phi <4 x i32> [ <i32 1, i32 1, i32 1, i32 1>, %27 ], [ %47, %29 ]
  %32 = phi <4 x i32> [ <i32 1, i32 1, i32 1, i32 1>, %27 ], [ %48, %29 ]
  %33 = phi i32 [ %28, %27 ], [ %50, %29 ]
  %34 = add <4 x i32> %30, <i32 -4, i32 -4, i32 -4, i32 -4>
  %35 = mul <4 x i32> %31, %30
  %36 = mul <4 x i32> %32, %34
  %37 = add <4 x i32> %30, <i32 -8, i32 -8, i32 -8, i32 -8>
  %38 = add <4 x i32> %30, <i32 -12, i32 -12, i32 -12, i32 -12>
  %39 = mul <4 x i32> %35, %37
  %40 = mul <4 x i32> %36, %38
  %41 = add <4 x i32> %30, <i32 -16, i32 -16, i32 -16, i32 -16>
  %42 = add <4 x i32> %30, <i32 -20, i32 -20, i32 -20, i32 -20>
  %43 = mul <4 x i32> %39, %41
  %44 = mul <4 x i32> %40, %42
  %45 = add <4 x i32> %30, <i32 -24, i32 -24, i32 -24, i32 -24>
  %46 = add <4 x i32> %30, <i32 -28, i32 -28, i32 -28, i32 -28>
  %47 = mul <4 x i32> %43, %45
  %48 = mul <4 x i32> %44, %46
  %49 = add <4 x i32> %30, <i32 -32, i32 -32, i32 -32, i32 -32>
  %50 = add i32 %33, -4
  %51 = icmp eq i32 %50, 0
  br i1 %51, label %52, label %29, !llvm.loop !17

52:                                               ; preds = %29, %19
  %53 = phi <4 x i32> [ undef, %19 ], [ %47, %29 ]
  %54 = phi <4 x i32> [ undef, %19 ], [ %48, %29 ]
  %55 = phi <4 x i32> [ %24, %19 ], [ %49, %29 ]
  %56 = phi <4 x i32> [ <i32 1, i32 1, i32 1, i32 1>, %19 ], [ %47, %29 ]
  %57 = phi <4 x i32> [ <i32 1, i32 1, i32 1, i32 1>, %19 ], [ %48, %29 ]
  %58 = icmp eq i32 %25, 0
  br i1 %58, label %70, label %59

59:                                               ; preds = %52, %59
  %60 = phi <4 x i32> [ %67, %59 ], [ %55, %52 ]
  %61 = phi <4 x i32> [ %65, %59 ], [ %56, %52 ]
  %62 = phi <4 x i32> [ %66, %59 ], [ %57, %52 ]
  %63 = phi i32 [ %68, %59 ], [ %25, %52 ]
  %64 = add <4 x i32> %60, <i32 -4, i32 -4, i32 -4, i32 -4>
  %65 = mul <4 x i32> %61, %60
  %66 = mul <4 x i32> %62, %64
  %67 = add <4 x i32> %60, <i32 -8, i32 -8, i32 -8, i32 -8>
  %68 = add i32 %63, -1
  %69 = icmp eq i32 %68, 0
  br i1 %69, label %70, label %59, !llvm.loop !18

70:                                               ; preds = %59, %52
  %71 = phi <4 x i32> [ %53, %52 ], [ %65, %59 ]
  %72 = phi <4 x i32> [ %54, %52 ], [ %66, %59 ]
  %73 = mul <4 x i32> %72, %71
  %74 = call i32 @llvm.vector.reduce.mul.v4i32(<4 x i32> %73)
  %75 = icmp eq i32 %7, %20
  br i1 %75, label %85, label %76

76:                                               ; preds = %17, %70
  %77 = phi i32 [ %3, %17 ], [ %21, %70 ]
  %78 = phi i32 [ 1, %17 ], [ %74, %70 ]
  br label %79

79:                                               ; preds = %76, %79
  %80 = phi i32 [ %82, %79 ], [ %77, %76 ]
  %81 = phi i32 [ %83, %79 ], [ %78, %76 ]
  %82 = add nsw i32 %80, -1
  %83 = mul nsw i32 %81, %80
  %84 = icmp ult i32 %82, 2
  br i1 %84, label %85, label %79, !llvm.loop !19

85:                                               ; preds = %79, %70
  %86 = phi i32 [ %74, %70 ], [ %83, %79 ]
  %87 = icmp ugt i32 %3, 8
  br i1 %87, label %158, label %88

88:                                               ; preds = %85, %2
  %89 = phi i32 [ %86, %85 ], [ 1, %2 ]
  %90 = sub nuw nsw i32 10, %3
  %91 = add i32 %11, -1
  %92 = insertelement <4 x i32> poison, i32 %91, i32 0
  %93 = shufflevector <4 x i32> %92, <4 x i32> poison, <4 x i32> zeroinitializer
  %94 = insertelement <4 x i32> poison, i32 %90, i32 0
  %95 = shufflevector <4 x i32> %94, <4 x i32> poison, <4 x i32> zeroinitializer
  %96 = add <4 x i32> %95, <i32 0, i32 -1, i32 -2, i32 -3>
  %97 = add i32 %11, -1
  %98 = lshr i32 %97, 2
  %99 = add nuw nsw i32 %98, 1
  %100 = and i32 %99, 7
  %101 = icmp ult i32 %97, 28
  br i1 %101, label %130, label %102

102:                                              ; preds = %88
  %103 = and i32 %99, 2147483640
  br label %104

104:                                              ; preds = %104, %102
  %105 = phi i32 [ 0, %102 ], [ %124, %104 ]
  %106 = phi <4 x i32> [ %96, %102 ], [ %125, %104 ]
  %107 = phi <4 x i32> [ <i32 1, i32 1, i32 1, i32 1>, %102 ], [ %123, %104 ]
  %108 = phi i32 [ %103, %102 ], [ %126, %104 ]
  %109 = mul <4 x i32> %107, %106
  %110 = add <4 x i32> %106, <i32 -4, i32 -4, i32 -4, i32 -4>
  %111 = mul <4 x i32> %109, %110
  %112 = add <4 x i32> %106, <i32 -8, i32 -8, i32 -8, i32 -8>
  %113 = mul <4 x i32> %111, %112
  %114 = add <4 x i32> %106, <i32 -12, i32 -12, i32 -12, i32 -12>
  %115 = mul <4 x i32> %113, %114
  %116 = add <4 x i32> %106, <i32 -16, i32 -16, i32 -16, i32 -16>
  %117 = mul <4 x i32> %115, %116
  %118 = add <4 x i32> %106, <i32 -20, i32 -20, i32 -20, i32 -20>
  %119 = mul <4 x i32> %117, %118
  %120 = add <4 x i32> %106, <i32 -24, i32 -24, i32 -24, i32 -24>
  %121 = mul <4 x i32> %119, %120
  %122 = add <4 x i32> %106, <i32 -28, i32 -28, i32 -28, i32 -28>
  %123 = mul <4 x i32> %121, %122
  %124 = add i32 %105, 32
  %125 = add <4 x i32> %106, <i32 -32, i32 -32, i32 -32, i32 -32>
  %126 = add i32 %108, -8
  %127 = icmp eq i32 %126, 0
  br i1 %127, label %128, label %104, !llvm.loop !20

128:                                              ; preds = %104
  %129 = or i32 %105, 28
  br label %130

130:                                              ; preds = %128, %88
  %131 = phi i32 [ undef, %88 ], [ %129, %128 ]
  %132 = phi <4 x i32> [ undef, %88 ], [ %121, %128 ]
  %133 = phi <4 x i32> [ undef, %88 ], [ %123, %128 ]
  %134 = phi i32 [ 0, %88 ], [ %124, %128 ]
  %135 = phi <4 x i32> [ %96, %88 ], [ %125, %128 ]
  %136 = phi <4 x i32> [ <i32 1, i32 1, i32 1, i32 1>, %88 ], [ %123, %128 ]
  %137 = icmp eq i32 %100, 0
  br i1 %137, label %148, label %138

138:                                              ; preds = %130, %138
  %139 = phi i32 [ %144, %138 ], [ %134, %130 ]
  %140 = phi <4 x i32> [ %145, %138 ], [ %135, %130 ]
  %141 = phi <4 x i32> [ %143, %138 ], [ %136, %130 ]
  %142 = phi i32 [ %146, %138 ], [ %100, %130 ]
  %143 = mul <4 x i32> %141, %140
  %144 = add i32 %139, 4
  %145 = add <4 x i32> %140, <i32 -4, i32 -4, i32 -4, i32 -4>
  %146 = add i32 %142, -1
  %147 = icmp eq i32 %146, 0
  br i1 %147, label %148, label %138, !llvm.loop !21

148:                                              ; preds = %138, %130
  %149 = phi i32 [ %131, %130 ], [ %139, %138 ]
  %150 = phi <4 x i32> [ %132, %130 ], [ %141, %138 ]
  %151 = phi <4 x i32> [ %133, %130 ], [ %143, %138 ]
  %152 = insertelement <4 x i32> poison, i32 %149, i32 0
  %153 = shufflevector <4 x i32> %152, <4 x i32> poison, <4 x i32> zeroinitializer
  %154 = or <4 x i32> %153, <i32 0, i32 1, i32 2, i32 3>
  %155 = icmp ugt <4 x i32> %154, %93
  %156 = select <4 x i1> %155, <4 x i32> %150, <4 x i32> %151
  %157 = call i32 @llvm.vector.reduce.mul.v4i32(<4 x i32> %156)
  br label %158

158:                                              ; preds = %148, %85
  %159 = phi i32 [ %86, %85 ], [ %89, %148 ]
  %160 = phi i32 [ 1, %85 ], [ %157, %148 ]
  %161 = mul nsw i32 %160, %159
  %162 = sdiv i32 3628800, %161
  %163 = tail call nonnull align 8 dereferenceable(8) %"class.std::basic_ostream"* @_ZNSolsEi(%"class.std::basic_ostream"* nonnull dereferenceable(8) %14, i32 %162)
  %164 = bitcast %"class.std::basic_ostream"* %163 to i8**
  %165 = load i8*, i8** %164, align 8, !tbaa !22
  %166 = getelementptr i8, i8* %165, i64 -24
  %167 = bitcast i8* %166 to i64*
  %168 = load i64, i64* %167, align 8
  %169 = getelementptr inbounds %"class.std::basic_ostream", %"class.std::basic_ostream"* %163, i64 0, i32 1, i32 4
  %170 = bitcast %"class.std::basic_streambuf"** %169 to i8*
  %171 = getelementptr inbounds i8, i8* %170, i64 %168
  %172 = bitcast i8* %171 to %"class.std::ctype"**
  %173 = load %"class.std::ctype"*, %"class.std::ctype"** %172, align 8, !tbaa !25
  %174 = icmp eq %"class.std::ctype"* %173, null
  br i1 %174, label %175, label %176

175:                                              ; preds = %158
  tail call void @_ZSt16__throw_bad_castv() #9
  unreachable

176:                                              ; preds = %158
  %177 = getelementptr inbounds %"class.std::ctype", %"class.std::ctype"* %173, i64 0, i32 8
  %178 = load i8, i8* %177, align 8, !tbaa !30
  %179 = icmp eq i8 %178, 0
  br i1 %179, label %183, label %180

180:                                              ; preds = %176
  %181 = getelementptr inbounds %"class.std::ctype", %"class.std::ctype"* %173, i64 0, i32 9, i64 10
  %182 = load i8, i8* %181, align 1, !tbaa !32
  br label %189

183:                                              ; preds = %176
  tail call void @_ZNKSt5ctypeIcE13_M_widen_initEv(%"class.std::ctype"* nonnull dereferenceable(570) %173)
  %184 = bitcast %"class.std::ctype"* %173 to i8 (%"class.std::ctype"*, i8)***
  %185 = load i8 (%"class.std::ctype"*, i8)**, i8 (%"class.std::ctype"*, i8)*** %184, align 8, !tbaa !22
  %186 = getelementptr inbounds i8 (%"class.std::ctype"*, i8)*, i8 (%"class.std::ctype"*, i8)** %185, i64 6
  %187 = load i8 (%"class.std::ctype"*, i8)*, i8 (%"class.std::ctype"*, i8)** %186, align 8
  %188 = tail call signext i8 %187(%"class.std::ctype"* nonnull dereferenceable(570) %173, i8 signext 10)
  br label %189

189:                                              ; preds = %180, %183
  %190 = phi i8 [ %182, %180 ], [ %188, %183 ]
  %191 = tail call nonnull align 8 dereferenceable(8) %"class.std::basic_ostream"* @_ZNSo3putEc(%"class.std::basic_ostream"* nonnull dereferenceable(8) %163, i8 signext %190)
  %192 = tail call nonnull align 8 dereferenceable(8) %"class.std::basic_ostream"* @_ZNSo5flushEv(%"class.std::basic_ostream"* nonnull dereferenceable(8) %191)
  %193 = add nuw nsw i32 %3, 1
  %194 = icmp eq i32 %193, 10
  br i1 %194, label %1, label %2, !llvm.loop !33
}

declare dso_local nonnull align 8 dereferenceable(8) %"class.std::basic_ostream"* @_ZNSolsEi(%"class.std::basic_ostream"* nonnull dereferenceable(8), i32) local_unnamed_addr #0

declare dso_local nonnull align 8 dereferenceable(8) %"class.std::basic_ostream"* @_ZSt16__ostream_insertIcSt11char_traitsIcEERSt13basic_ostreamIT_T0_ES6_PKS3_l(%"class.std::basic_ostream"* nonnull align 8 dereferenceable(8), i8*, i64) local_unnamed_addr #0

declare dso_local nonnull align 8 dereferenceable(8) %"class.std::basic_ostream"* @_ZNSo3putEc(%"class.std::basic_ostream"* nonnull dereferenceable(8), i8 signext) local_unnamed_addr #0

declare dso_local nonnull align 8 dereferenceable(8) %"class.std::basic_ostream"* @_ZNSo5flushEv(%"class.std::basic_ostream"* nonnull dereferenceable(8)) local_unnamed_addr #0

; Function Attrs: noreturn
declare dso_local void @_ZSt16__throw_bad_castv() local_unnamed_addr #6

declare dso_local void @_ZNKSt5ctypeIcE13_M_widen_initEv(%"class.std::ctype"* nonnull dereferenceable(570)) local_unnamed_addr #0

; Function Attrs: uwtable
define internal void @_GLOBAL__sub_I_test1.cpp() #7 section ".text.startup" {
  tail call void @_ZNSt8ios_base4InitC1Ev(%"class.std::ios_base::Init"* nonnull dereferenceable(1) @_ZStL8__ioinit)
  %1 = tail call i32 @__cxa_atexit(void (i8*)* bitcast (void (%"class.std::ios_base::Init"*)* @_ZNSt8ios_base4InitD1Ev to void (i8*)*), i8* getelementptr inbounds (%"class.std::ios_base::Init", %"class.std::ios_base::Init"* @_ZStL8__ioinit, i64 0, i32 0), i8* nonnull @__dso_handle) #10
  ret void
}

; Function Attrs: nofree nosync nounwind readnone willreturn
declare i32 @llvm.vector.reduce.mul.v4i32(<4 x i32>) #8

attributes #0 = { "disable-tail-calls"="false" "frame-pointer"="none" "less-precise-fpmad"="false" "no-infs-fp-math"="false" "no-nans-fp-math"="false" "no-signed-zeros-fp-math"="false" "no-trapping-math"="true" "stack-protector-buffer-size"="8" "target-cpu"="x86-64" "target-features"="+cx8,+fxsr,+mmx,+sse,+sse2,+x87" "tune-cpu"="generic" "unsafe-fp-math"="false" "use-soft-float"="false" }
attributes #1 = { nounwind "disable-tail-calls"="false" "frame-pointer"="none" "less-precise-fpmad"="false" "no-infs-fp-math"="false" "no-nans-fp-math"="false" "no-signed-zeros-fp-math"="false" "no-trapping-math"="true" "stack-protector-buffer-size"="8" "target-cpu"="x86-64" "target-features"="+cx8,+fxsr,+mmx,+sse,+sse2,+x87" "tune-cpu"="generic" "unsafe-fp-math"="false" "use-soft-float"="false" }
attributes #2 = { nofree nounwind }
attributes #3 = { nounwind readnone uwtable willreturn mustprogress "disable-tail-calls"="false" "frame-pointer"="none" "less-precise-fpmad"="false" "min-legal-vector-width"="0" "no-infs-fp-math"="false" "no-jump-tables"="false" "no-nans-fp-math"="false" "no-signed-zeros-fp-math"="false" "no-trapping-math"="true" "stack-protector-buffer-size"="8" "target-cpu"="x86-64" "target-features"="+cx8,+fxsr,+mmx,+sse,+sse2,+x87" "tune-cpu"="generic" "unsafe-fp-math"="false" "use-soft-float"="false" }
attributes #4 = { norecurse nounwind readnone uwtable willreturn mustprogress "disable-tail-calls"="false" "frame-pointer"="none" "less-precise-fpmad"="false" "min-legal-vector-width"="0" "no-infs-fp-math"="false" "no-jump-tables"="false" "no-nans-fp-math"="false" "no-signed-zeros-fp-math"="false" "no-trapping-math"="true" "stack-protector-buffer-size"="8" "target-cpu"="x86-64" "target-features"="+cx8,+fxsr,+mmx,+sse,+sse2,+x87" "tune-cpu"="generic" "unsafe-fp-math"="false" "use-soft-float"="false" }
attributes #5 = { norecurse uwtable mustprogress "disable-tail-calls"="false" "frame-pointer"="none" "less-precise-fpmad"="false" "min-legal-vector-width"="0" "no-infs-fp-math"="false" "no-jump-tables"="false" "no-nans-fp-math"="false" "no-signed-zeros-fp-math"="false" "no-trapping-math"="true" "stack-protector-buffer-size"="8" "target-cpu"="x86-64" "target-features"="+cx8,+fxsr,+mmx,+sse,+sse2,+x87" "tune-cpu"="generic" "unsafe-fp-math"="false" "use-soft-float"="false" }
attributes #6 = { noreturn "disable-tail-calls"="false" "frame-pointer"="none" "less-precise-fpmad"="false" "no-infs-fp-math"="false" "no-nans-fp-math"="false" "no-signed-zeros-fp-math"="false" "no-trapping-math"="true" "stack-protector-buffer-size"="8" "target-cpu"="x86-64" "target-features"="+cx8,+fxsr,+mmx,+sse,+sse2,+x87" "tune-cpu"="generic" "unsafe-fp-math"="false" "use-soft-float"="false" }
attributes #7 = { uwtable "disable-tail-calls"="false" "frame-pointer"="none" "less-precise-fpmad"="false" "min-legal-vector-width"="0" "no-infs-fp-math"="false" "no-jump-tables"="false" "no-nans-fp-math"="false" "no-signed-zeros-fp-math"="false" "no-trapping-math"="true" "stack-protector-buffer-size"="8" "target-cpu"="x86-64" "target-features"="+cx8,+fxsr,+mmx,+sse,+sse2,+x87" "tune-cpu"="generic" "unsafe-fp-math"="false" "use-soft-float"="false" }
attributes #8 = { nofree nosync nounwind readnone willreturn }
attributes #9 = { noreturn }
attributes #10 = { nounwind }

!llvm.module.flags = !{!0}
!llvm.ident = !{!1}

!0 = !{i32 1, !"wchar_size", i32 4}
!1 = !{!"clang version 12.0.1"}
!2 = distinct !{!2, !3}
!3 = !{!"llvm.loop.isvectorized", i32 1}
!4 = distinct !{!4, !5}
!5 = !{!"llvm.loop.unroll.disable"}
!6 = distinct !{!6, !7, !3}
!7 = !{!"llvm.loop.unroll.runtime.disable"}
!8 = distinct !{!8, !3}
!9 = distinct !{!9, !5}
!10 = distinct !{!10, !7, !3}
!11 = distinct !{!11, !3}
!12 = distinct !{!12, !5}
!13 = distinct !{!13, !7, !3}
!14 = distinct !{!14, !3}
!15 = distinct !{!15, !5}
!16 = distinct !{!16, !7, !3}
!17 = distinct !{!17, !3}
!18 = distinct !{!18, !5}
!19 = distinct !{!19, !7, !3}
!20 = distinct !{!20, !3}
!21 = distinct !{!21, !5}
!22 = !{!23, !23, i64 0}
!23 = !{!"vtable pointer", !24, i64 0}
!24 = !{!"Simple C++ TBAA"}
!25 = !{!26, !27, i64 240}
!26 = !{!"_ZTSSt9basic_iosIcSt11char_traitsIcEE", !27, i64 216, !28, i64 224, !29, i64 225, !27, i64 232, !27, i64 240, !27, i64 248, !27, i64 256}
!27 = !{!"any pointer", !28, i64 0}
!28 = !{!"omnipotent char", !24, i64 0}
!29 = !{!"bool", !28, i64 0}
!30 = !{!31, !28, i64 56}
!31 = !{!"_ZTSSt5ctypeIcE", !27, i64 16, !29, i64 24, !27, i64 32, !27, i64 40, !27, i64 48, !28, i64 56, !28, i64 57, !28, i64 313, !28, i64 569}
!32 = !{!28, !28, i64 0}
!33 = distinct !{!33, !34}
!34 = !{!"llvm.loop.mustprogress"}