; ModuleID = 'temp/permutations-of-a-given-string.cpp'
source_filename = "temp/permutations-of-a-given-string.cpp"
target datalayout = "e-m:e-p270:32:32-p271:32:32-p272:64:64-i64:64-f80:128-n8:16:32:64-S128"
target triple = "x86_64-unknown-linux-gnu"

%"class.std::ios_base::Init" = type { i8 }
%"class.std::basic_ostream" = type { i32 (...)**, %"class.std::basic_ios" }
%"class.std::basic_ios" = type { %"class.std::ios_base", %"class.std::basic_ostream"*, i8, i8, %"class.std::basic_streambuf"*, %"class.std::ctype"*, %"class.std::num_put"*, %"class.std::num_get"* }
%"class.std::ios_base" = type { i32 (...)**, i64, i64, i32, i32, i32, %"struct.std::ios_base::_Callback_list"*, %"struct.std::ios_base::_Words", [8 x %"struct.std::ios_base::_Words"], i32, %"struct.std::ios_base::_Words"*, %"class.std::locale" }
%"struct.std::ios_base::_Callback_list" = type { %"struct.std::ios_base::_Callback_list"*, void (i32, %"class.std::ios_base"*, i32)*, i32, i32 }
%"struct.std::ios_base::_Words" = type { i8*, i64 }
%"class.std::locale" = type { %"class.std::locale::_Impl"* }
%"class.std::locale::_Impl" = type { i32, %"class.std::locale::facet"**, i64, %"class.std::locale::facet"**, i8** }
%"class.std::locale::facet" = type <{ i32 (...)**, i32, [4 x i8] }>
%"class.std::basic_streambuf" = type { i32 (...)**, i8*, i8*, i8*, i8*, i8*, i8*, %"class.std::locale" }
%"class.std::ctype" = type <{ %"class.std::locale::facet.base", [4 x i8], %struct.__locale_struct*, i8, [7 x i8], i32*, i32*, i16*, i8, [256 x i8], [256 x i8], i8, [6 x i8] }>
%"class.std::locale::facet.base" = type <{ i32 (...)**, i32 }>
%struct.__locale_struct = type { [13 x %struct.__locale_data*], i16*, i32*, i32*, [13 x i8*] }
%struct.__locale_data = type opaque
%"class.std::num_put" = type { %"class.std::locale::facet.base", [4 x i8] }
%"class.std::num_get" = type { %"class.std::locale::facet.base", [4 x i8] }
%"class.std::__cxx11::basic_string" = type { %"struct.std::__cxx11::basic_string<char, std::char_traits<char>, std::allocator<char> >::_Alloc_hider", i64, %union.anon }
%"struct.std::__cxx11::basic_string<char, std::char_traits<char>, std::allocator<char> >::_Alloc_hider" = type { i8* }
%union.anon = type { i64, [8 x i8] }
%"class.std::allocator" = type { i8 }

$_ZSt4swapIcENSt9enable_ifIXsr6__and_ISt6__not_ISt15__is_tuple_likeIT_EESt21is_move_constructibleIS3_ESt18is_move_assignableIS3_EEE5valueEvE4typeERS3_SC_ = comdat any

$_ZSt4moveIRcEONSt16remove_referenceIT_E4typeEOS2_ = comdat any

@_ZStL8__ioinit = internal global %"class.std::ios_base::Init" zeroinitializer, align 1
@__dso_handle = external hidden global i8
@_ZSt4cout = external dso_local global %"class.std::basic_ostream", align 8
@.str = private unnamed_addr constant [4 x i8] c"ABC\00", align 1
@llvm.global_ctors = appending global [1 x { i32, void ()*, i8* }] [{ i32, void ()*, i8* } { i32 65535, void ()* @_GLOBAL__sub_I_permutations_of_a_given_string.cpp, i8* null }]

; Function Attrs: noinline uwtable
define internal void @__cxx_global_var_init() #0 section ".text.startup" {
entry:
  call void @_ZNSt8ios_base4InitC1Ev(%"class.std::ios_base::Init"* @_ZStL8__ioinit)
  %0 = call i32 @__cxa_atexit(void (i8*)* bitcast (void (%"class.std::ios_base::Init"*)* @_ZNSt8ios_base4InitD1Ev to void (i8*)*), i8* getelementptr inbounds (%"class.std::ios_base::Init", %"class.std::ios_base::Init"* @_ZStL8__ioinit, i32 0, i32 0), i8* @__dso_handle) #3
  ret void
}

declare dso_local void @_ZNSt8ios_base4InitC1Ev(%"class.std::ios_base::Init"*) unnamed_addr #1

; Function Attrs: nounwind
declare dso_local void @_ZNSt8ios_base4InitD1Ev(%"class.std::ios_base::Init"*) unnamed_addr #2

; Function Attrs: nounwind
declare dso_local i32 @__cxa_atexit(void (i8*)*, i8*, i8*) #3

; Function Attrs: noinline uwtable
define dso_local void @_Z7permuteNSt7__cxx1112basic_stringIcSt11char_traitsIcESaIcEEEii(%"class.std::__cxx11::basic_string"* %a, i32 %l, i32 %r) #0 personality i8* bitcast (i32 (...)* @__gxx_personality_v0 to i8*) {
entry:
  %l.addr = alloca i32, align 4
  %r.addr = alloca i32, align 4
  %i = alloca i32, align 4
  %agg.tmp = alloca %"class.std::__cxx11::basic_string", align 8
  %exn.slot = alloca i8*
  %ehselector.slot = alloca i32
  store i32 %l, i32* %l.addr, align 4
  store i32 %r, i32* %r.addr, align 4
  %0 = load i32, i32* %l.addr, align 4
  %1 = load i32, i32* %r.addr, align 4
  %cmp = icmp eq i32 %0, %1
  br i1 %cmp, label %if.then, label %if.else

if.then:                                          ; preds = %entry
  %call = call dereferenceable(272) %"class.std::basic_ostream"* @_ZStlsIcSt11char_traitsIcESaIcEERSt13basic_ostreamIT_T0_ES7_RKNSt7__cxx1112basic_stringIS4_S5_T1_EE(%"class.std::basic_ostream"* dereferenceable(272) @_ZSt4cout, %"class.std::__cxx11::basic_string"* dereferenceable(32) %a)
  %call1 = call dereferenceable(272) %"class.std::basic_ostream"* @_ZNSolsEPFRSoS_E(%"class.std::basic_ostream"* %call, %"class.std::basic_ostream"* (%"class.std::basic_ostream"*)* @_ZSt4endlIcSt11char_traitsIcEERSt13basic_ostreamIT_T0_ES6_)
  br label %if.end

if.else:                                          ; preds = %entry
  %2 = load i32, i32* %l.addr, align 4
  store i32 %2, i32* %i, align 4
  br label %for.cond

for.cond:                                         ; preds = %for.inc, %if.else
  %3 = load i32, i32* %i, align 4
  %4 = load i32, i32* %r.addr, align 4
  %cmp2 = icmp sle i32 %3, %4
  br i1 %cmp2, label %for.body, label %for.end

for.body:                                         ; preds = %for.cond
  %5 = load i32, i32* %l.addr, align 4
  %conv = sext i32 %5 to i64
  %call3 = call dereferenceable(1) i8* @_ZNSt7__cxx1112basic_stringIcSt11char_traitsIcESaIcEEixEm(%"class.std::__cxx11::basic_string"* %a, i64 %conv)
  %6 = load i32, i32* %i, align 4
  %conv4 = sext i32 %6 to i64
  %call5 = call dereferenceable(1) i8* @_ZNSt7__cxx1112basic_stringIcSt11char_traitsIcESaIcEEixEm(%"class.std::__cxx11::basic_string"* %a, i64 %conv4)
  call void @_ZSt4swapIcENSt9enable_ifIXsr6__and_ISt6__not_ISt15__is_tuple_likeIT_EESt21is_move_constructibleIS3_ESt18is_move_assignableIS3_EEE5valueEvE4typeERS3_SC_(i8* dereferenceable(1) %call3, i8* dereferenceable(1) %call5) #3
  call void @_ZNSt7__cxx1112basic_stringIcSt11char_traitsIcESaIcEEC1ERKS4_(%"class.std::__cxx11::basic_string"* %agg.tmp, %"class.std::__cxx11::basic_string"* dereferenceable(32) %a)
  %7 = load i32, i32* %l.addr, align 4
  %add = add nsw i32 %7, 1
  %8 = load i32, i32* %r.addr, align 4
  invoke void @_Z7permuteNSt7__cxx1112basic_stringIcSt11char_traitsIcESaIcEEEii(%"class.std::__cxx11::basic_string"* %agg.tmp, i32 %add, i32 %8)
          to label %invoke.cont unwind label %lpad

invoke.cont:                                      ; preds = %for.body
  call void @_ZNSt7__cxx1112basic_stringIcSt11char_traitsIcESaIcEED1Ev(%"class.std::__cxx11::basic_string"* %agg.tmp) #3
  %9 = load i32, i32* %l.addr, align 4
  %conv6 = sext i32 %9 to i64
  %call7 = call dereferenceable(1) i8* @_ZNSt7__cxx1112basic_stringIcSt11char_traitsIcESaIcEEixEm(%"class.std::__cxx11::basic_string"* %a, i64 %conv6)
  %10 = load i32, i32* %i, align 4
  %conv8 = sext i32 %10 to i64
  %call9 = call dereferenceable(1) i8* @_ZNSt7__cxx1112basic_stringIcSt11char_traitsIcESaIcEEixEm(%"class.std::__cxx11::basic_string"* %a, i64 %conv8)
  call void @_ZSt4swapIcENSt9enable_ifIXsr6__and_ISt6__not_ISt15__is_tuple_likeIT_EESt21is_move_constructibleIS3_ESt18is_move_assignableIS3_EEE5valueEvE4typeERS3_SC_(i8* dereferenceable(1) %call7, i8* dereferenceable(1) %call9) #3
  br label %for.inc

for.inc:                                          ; preds = %invoke.cont
  %11 = load i32, i32* %i, align 4
  %inc = add nsw i32 %11, 1
  store i32 %inc, i32* %i, align 4
  br label %for.cond

lpad:                                             ; preds = %for.body
  %12 = landingpad { i8*, i32 }
          cleanup
  %13 = extractvalue { i8*, i32 } %12, 0
  store i8* %13, i8** %exn.slot, align 8
  %14 = extractvalue { i8*, i32 } %12, 1
  store i32 %14, i32* %ehselector.slot, align 4
  call void @_ZNSt7__cxx1112basic_stringIcSt11char_traitsIcESaIcEED1Ev(%"class.std::__cxx11::basic_string"* %agg.tmp) #3
  br label %eh.resume

for.end:                                          ; preds = %for.cond
  br label %if.end

if.end:                                           ; preds = %for.end, %if.then
  ret void

eh.resume:                                        ; preds = %lpad
  %exn = load i8*, i8** %exn.slot, align 8
  %sel = load i32, i32* %ehselector.slot, align 4
  %lpad.val = insertvalue { i8*, i32 } undef, i8* %exn, 0
  %lpad.val10 = insertvalue { i8*, i32 } %lpad.val, i32 %sel, 1
  resume { i8*, i32 } %lpad.val10
}

declare dso_local dereferenceable(272) %"class.std::basic_ostream"* @_ZStlsIcSt11char_traitsIcESaIcEERSt13basic_ostreamIT_T0_ES7_RKNSt7__cxx1112basic_stringIS4_S5_T1_EE(%"class.std::basic_ostream"* dereferenceable(272), %"class.std::__cxx11::basic_string"* dereferenceable(32)) #1

declare dso_local dereferenceable(272) %"class.std::basic_ostream"* @_ZNSolsEPFRSoS_E(%"class.std::basic_ostream"*, %"class.std::basic_ostream"* (%"class.std::basic_ostream"*)*) #1

declare dso_local dereferenceable(272) %"class.std::basic_ostream"* @_ZSt4endlIcSt11char_traitsIcEERSt13basic_ostreamIT_T0_ES6_(%"class.std::basic_ostream"* dereferenceable(272)) #1

; Function Attrs: noinline nounwind uwtable
define linkonce_odr dso_local void @_ZSt4swapIcENSt9enable_ifIXsr6__and_ISt6__not_ISt15__is_tuple_likeIT_EESt21is_move_constructibleIS3_ESt18is_move_assignableIS3_EEE5valueEvE4typeERS3_SC_(i8* dereferenceable(1) %__a, i8* dereferenceable(1) %__b) #4 comdat {
entry:
  %__a.addr = alloca i8*, align 8
  %__b.addr = alloca i8*, align 8
  %__tmp = alloca i8, align 1
  store i8* %__a, i8** %__a.addr, align 8
  store i8* %__b, i8** %__b.addr, align 8
  %0 = load i8*, i8** %__a.addr, align 8
  %call = call dereferenceable(1) i8* @_ZSt4moveIRcEONSt16remove_referenceIT_E4typeEOS2_(i8* dereferenceable(1) %0) #3
  %1 = load i8, i8* %call, align 1
  store i8 %1, i8* %__tmp, align 1
  %2 = load i8*, i8** %__b.addr, align 8
  %call1 = call dereferenceable(1) i8* @_ZSt4moveIRcEONSt16remove_referenceIT_E4typeEOS2_(i8* dereferenceable(1) %2) #3
  %3 = load i8, i8* %call1, align 1
  %4 = load i8*, i8** %__a.addr, align 8
  store i8 %3, i8* %4, align 1
  %call2 = call dereferenceable(1) i8* @_ZSt4moveIRcEONSt16remove_referenceIT_E4typeEOS2_(i8* dereferenceable(1) %__tmp) #3
  %5 = load i8, i8* %call2, align 1
  %6 = load i8*, i8** %__b.addr, align 8
  store i8 %5, i8* %6, align 1
  ret void
}

declare dso_local dereferenceable(1) i8* @_ZNSt7__cxx1112basic_stringIcSt11char_traitsIcESaIcEEixEm(%"class.std::__cxx11::basic_string"*, i64) #1

declare dso_local void @_ZNSt7__cxx1112basic_stringIcSt11char_traitsIcESaIcEEC1ERKS4_(%"class.std::__cxx11::basic_string"*, %"class.std::__cxx11::basic_string"* dereferenceable(32)) unnamed_addr #1

declare dso_local i32 @__gxx_personality_v0(...)

; Function Attrs: nounwind
declare dso_local void @_ZNSt7__cxx1112basic_stringIcSt11char_traitsIcESaIcEED1Ev(%"class.std::__cxx11::basic_string"*) unnamed_addr #2

; Function Attrs: noinline norecurse uwtable
define dso_local i32 @main() #5 personality i8* bitcast (i32 (...)* @__gxx_personality_v0 to i8*) {
entry:
  %retval = alloca i32, align 4
  %str = alloca %"class.std::__cxx11::basic_string", align 8
  %ref.tmp = alloca %"class.std::allocator", align 1
  %exn.slot = alloca i8*
  %ehselector.slot = alloca i32
  %n = alloca i32, align 4
  %agg.tmp = alloca %"class.std::__cxx11::basic_string", align 8
  store i32 0, i32* %retval, align 4
  call void @_ZNSaIcEC1Ev(%"class.std::allocator"* %ref.tmp) #3
  invoke void @_ZNSt7__cxx1112basic_stringIcSt11char_traitsIcESaIcEEC1EPKcRKS3_(%"class.std::__cxx11::basic_string"* %str, i8* getelementptr inbounds ([4 x i8], [4 x i8]* @.str, i64 0, i64 0), %"class.std::allocator"* dereferenceable(1) %ref.tmp)
          to label %invoke.cont unwind label %lpad

invoke.cont:                                      ; preds = %entry
  call void @_ZNSaIcED1Ev(%"class.std::allocator"* %ref.tmp) #3
  %call = call i64 @_ZNKSt7__cxx1112basic_stringIcSt11char_traitsIcESaIcEE4sizeEv(%"class.std::__cxx11::basic_string"* %str) #3
  %conv = trunc i64 %call to i32
  store i32 %conv, i32* %n, align 4
  invoke void @_ZNSt7__cxx1112basic_stringIcSt11char_traitsIcESaIcEEC1ERKS4_(%"class.std::__cxx11::basic_string"* %agg.tmp, %"class.std::__cxx11::basic_string"* dereferenceable(32) %str)
          to label %invoke.cont2 unwind label %lpad1

invoke.cont2:                                     ; preds = %invoke.cont
  %0 = load i32, i32* %n, align 4
  %sub = sub nsw i32 %0, 1
  invoke void @_Z7permuteNSt7__cxx1112basic_stringIcSt11char_traitsIcESaIcEEEii(%"class.std::__cxx11::basic_string"* %agg.tmp, i32 0, i32 %sub)
          to label %invoke.cont4 unwind label %lpad3

invoke.cont4:                                     ; preds = %invoke.cont2
  call void @_ZNSt7__cxx1112basic_stringIcSt11char_traitsIcESaIcEED1Ev(%"class.std::__cxx11::basic_string"* %agg.tmp) #3
  store i32 0, i32* %retval, align 4
  call void @_ZNSt7__cxx1112basic_stringIcSt11char_traitsIcESaIcEED1Ev(%"class.std::__cxx11::basic_string"* %str) #3
  %1 = load i32, i32* %retval, align 4
  ret i32 %1

lpad:                                             ; preds = %entry
  %2 = landingpad { i8*, i32 }
          cleanup
  %3 = extractvalue { i8*, i32 } %2, 0
  store i8* %3, i8** %exn.slot, align 8
  %4 = extractvalue { i8*, i32 } %2, 1
  store i32 %4, i32* %ehselector.slot, align 4
  call void @_ZNSaIcED1Ev(%"class.std::allocator"* %ref.tmp) #3
  br label %eh.resume

lpad1:                                            ; preds = %invoke.cont
  %5 = landingpad { i8*, i32 }
          cleanup
  %6 = extractvalue { i8*, i32 } %5, 0
  store i8* %6, i8** %exn.slot, align 8
  %7 = extractvalue { i8*, i32 } %5, 1
  store i32 %7, i32* %ehselector.slot, align 4
  br label %ehcleanup

lpad3:                                            ; preds = %invoke.cont2
  %8 = landingpad { i8*, i32 }
          cleanup
  %9 = extractvalue { i8*, i32 } %8, 0
  store i8* %9, i8** %exn.slot, align 8
  %10 = extractvalue { i8*, i32 } %8, 1
  store i32 %10, i32* %ehselector.slot, align 4
  call void @_ZNSt7__cxx1112basic_stringIcSt11char_traitsIcESaIcEED1Ev(%"class.std::__cxx11::basic_string"* %agg.tmp) #3
  br label %ehcleanup

ehcleanup:                                        ; preds = %lpad3, %lpad1
  call void @_ZNSt7__cxx1112basic_stringIcSt11char_traitsIcESaIcEED1Ev(%"class.std::__cxx11::basic_string"* %str) #3
  br label %eh.resume

eh.resume:                                        ; preds = %ehcleanup, %lpad
  %exn = load i8*, i8** %exn.slot, align 8
  %sel = load i32, i32* %ehselector.slot, align 4
  %lpad.val = insertvalue { i8*, i32 } undef, i8* %exn, 0
  %lpad.val5 = insertvalue { i8*, i32 } %lpad.val, i32 %sel, 1
  resume { i8*, i32 } %lpad.val5
}

; Function Attrs: nounwind
declare dso_local void @_ZNSaIcEC1Ev(%"class.std::allocator"*) unnamed_addr #2

declare dso_local void @_ZNSt7__cxx1112basic_stringIcSt11char_traitsIcESaIcEEC1EPKcRKS3_(%"class.std::__cxx11::basic_string"*, i8*, %"class.std::allocator"* dereferenceable(1)) unnamed_addr #1

; Function Attrs: nounwind
declare dso_local void @_ZNSaIcED1Ev(%"class.std::allocator"*) unnamed_addr #2

; Function Attrs: nounwind
declare dso_local i64 @_ZNKSt7__cxx1112basic_stringIcSt11char_traitsIcESaIcEE4sizeEv(%"class.std::__cxx11::basic_string"*) #2

; Function Attrs: noinline nounwind uwtable
define linkonce_odr dso_local dereferenceable(1) i8* @_ZSt4moveIRcEONSt16remove_referenceIT_E4typeEOS2_(i8* dereferenceable(1) %__t) #4 comdat {
entry:
  %__t.addr = alloca i8*, align 8
  store i8* %__t, i8** %__t.addr, align 8
  %0 = load i8*, i8** %__t.addr, align 8
  ret i8* %0
}

; Function Attrs: noinline uwtable
define internal void @_GLOBAL__sub_I_permutations_of_a_given_string.cpp() #0 section ".text.startup" {
entry:
  call void @__cxx_global_var_init()
  ret void
}

attributes #0 = { noinline uwtable "correctly-rounded-divide-sqrt-fp-math"="false" "disable-tail-calls"="false" "frame-pointer"="all" "less-precise-fpmad"="false" "min-legal-vector-width"="0" "no-infs-fp-math"="false" "no-jump-tables"="false" "no-nans-fp-math"="false" "no-signed-zeros-fp-math"="false" "no-trapping-math"="false" "stack-protector-buffer-size"="8" "target-cpu"="x86-64" "target-features"="+cx8,+fxsr,+mmx,+sse,+sse2,+x87" "unsafe-fp-math"="false" "use-soft-float"="false" }
attributes #1 = { "correctly-rounded-divide-sqrt-fp-math"="false" "disable-tail-calls"="false" "frame-pointer"="all" "less-precise-fpmad"="false" "no-infs-fp-math"="false" "no-nans-fp-math"="false" "no-signed-zeros-fp-math"="false" "no-trapping-math"="false" "stack-protector-buffer-size"="8" "target-cpu"="x86-64" "target-features"="+cx8,+fxsr,+mmx,+sse,+sse2,+x87" "unsafe-fp-math"="false" "use-soft-float"="false" }
attributes #2 = { nounwind "correctly-rounded-divide-sqrt-fp-math"="false" "disable-tail-calls"="false" "frame-pointer"="all" "less-precise-fpmad"="false" "no-infs-fp-math"="false" "no-nans-fp-math"="false" "no-signed-zeros-fp-math"="false" "no-trapping-math"="false" "stack-protector-buffer-size"="8" "target-cpu"="x86-64" "target-features"="+cx8,+fxsr,+mmx,+sse,+sse2,+x87" "unsafe-fp-math"="false" "use-soft-float"="false" }
attributes #3 = { nounwind }
attributes #4 = { noinline nounwind uwtable "correctly-rounded-divide-sqrt-fp-math"="false" "disable-tail-calls"="false" "frame-pointer"="all" "less-precise-fpmad"="false" "min-legal-vector-width"="0" "no-infs-fp-math"="false" "no-jump-tables"="false" "no-nans-fp-math"="false" "no-signed-zeros-fp-math"="false" "no-trapping-math"="false" "stack-protector-buffer-size"="8" "target-cpu"="x86-64" "target-features"="+cx8,+fxsr,+mmx,+sse,+sse2,+x87" "unsafe-fp-math"="false" "use-soft-float"="false" }
attributes #5 = { noinline norecurse uwtable "correctly-rounded-divide-sqrt-fp-math"="false" "disable-tail-calls"="false" "frame-pointer"="all" "less-precise-fpmad"="false" "min-legal-vector-width"="0" "no-infs-fp-math"="false" "no-jump-tables"="false" "no-nans-fp-math"="false" "no-signed-zeros-fp-math"="false" "no-trapping-math"="false" "stack-protector-buffer-size"="8" "target-cpu"="x86-64" "target-features"="+cx8,+fxsr,+mmx,+sse,+sse2,+x87" "unsafe-fp-math"="false" "use-soft-float"="false" }

!llvm.module.flags = !{!0}
!llvm.ident = !{!1}

!0 = !{i32 1, !"wchar_size", i32 4}
!1 = !{!"clang version 10.0.1 (https://github.com/svkeerthy/IR2Vec-LoopOptimizationFramework.git c9f3970c8ab4f2e4a601f77c94132e8604938dc1)"}
