; ModuleID = 'PE-benchmarks/Nearly_sorted_Algo.cpp'
source_filename = "PE-benchmarks/Nearly_sorted_Algo.cpp"
target datalayout = "e-m:e-i64:64-f80:128-n8:16:32:64-S128"
target triple = "x86_64-unknown-linux-gnu"

%"class.std::ios_base::Init" = type { i8 }
%"class.std::basic_ostream" = type { i32 (...)**, %"class.std::basic_ios" }
%"class.std::basic_ios" = type { %"class.std::ios_base", %"class.std::basic_ostream"*, i8, i8, %"class.std::basic_streambuf"*, %"class.std::ctype"*, %"class.std::num_put"*, %"class.std::num_get"* }
%"class.std::ios_base" = type { i32 (...)**, i64, i64, i32, i32, i32, %"struct.std::ios_base::_Callback_list"*, %"struct.std::ios_base::_Words", [8 x %"struct.std::ios_base::_Words"], i32, %"struct.std::ios_base::_Words"*, %"class.std::locale" }
%"struct.std::ios_base::_Callback_list" = type { %"struct.std::ios_base::_Callback_list"*, void (i32, %"class.std::ios_base"*, i32)*, i32, i32 }
%"struct.std::ios_base::_Words" = type { i8*, i64 }
%"class.std::locale" = type { %"class.std::locale::_Impl"* }
%"class.std::locale::_Impl" = type { i32, %"class.std::locale::facet"**, i64, %"class.std::locale::facet"**, i8** }
%"class.std::locale::facet" = type <{ i32 (...)**, i32, [4 x i8] }>
%"class.std::basic_streambuf" = type { i32 (...)**, i8*, i8*, i8*, i8*, i8*, i8*, %"class.std::locale" }
%"class.std::ctype" = type <{ %"class.std::locale::facet.base", [4 x i8], %struct.__locale_struct*, i8, [7 x i8], i32*, i32*, i16*, i8, [256 x i8], [256 x i8], i8, [6 x i8] }>
%"class.std::locale::facet.base" = type <{ i32 (...)**, i32 }>
%struct.__locale_struct = type { [13 x %struct.__locale_data*], i16*, i32*, i32*, [13 x i8*] }
%struct.__locale_data = type opaque
%"class.std::num_put" = type { %"class.std::locale::facet.base", [4 x i8] }
%"class.std::num_get" = type { %"class.std::locale::facet.base", [4 x i8] }
%"class.std::priority_queue" = type <{ %"class.std::vector", %"struct.std::greater", [7 x i8] }>
%"class.std::vector" = type { %"struct.std::_Vector_base" }
%"struct.std::_Vector_base" = type { %"struct.std::_Vector_base<int, std::allocator<int> >::_Vector_impl" }
%"struct.std::_Vector_base<int, std::allocator<int> >::_Vector_impl" = type { %"struct.std::_Vector_base<int, std::allocator<int> >::_Vector_impl_data" }
%"struct.std::_Vector_base<int, std::allocator<int> >::_Vector_impl_data" = type { i32*, i32*, i32* }
%"struct.std::greater" = type { i8 }
%"class.__gnu_cxx::__normal_iterator.0" = type { i32* }
%"class.__gnu_cxx::__normal_iterator" = type { i32* }
%"class.std::allocator" = type { i8 }
%"class.__gnu_cxx::new_allocator" = type { i8 }
%"struct.std::__false_type" = type { i8 }
%"struct.__gnu_cxx::__ops::_Iter_comp_iter" = type { %"struct.std::greater" }
%"struct.std::forward_iterator_tag" = type { i8 }
%"struct.std::random_access_iterator_tag" = type { i8 }
%"class.std::move_iterator" = type { i32* }
%"struct.__gnu_cxx::__ops::_Iter_comp_val" = type { %"struct.std::greater" }
%"struct.std::integral_constant" = type { i8 }

$_ZNSt6vectorIiSaIiEEC2Ev = comdat any

$_ZNSt14priority_queueIiSt6vectorIiSaIiEESt7greaterIiEEC2IPiEET_S8_RKS4_OS2_ = comdat any

$_ZNSt6vectorIiSaIiEED2Ev = comdat any

$_ZNKSt14priority_queueIiSt6vectorIiSaIiEESt7greaterIiEE3topEv = comdat any

$_ZNSt14priority_queueIiSt6vectorIiSaIiEESt7greaterIiEE3popEv = comdat any

$_ZNSt14priority_queueIiSt6vectorIiSaIiEESt7greaterIiEE4pushERKi = comdat any

$_ZNKSt14priority_queueIiSt6vectorIiSaIiEESt7greaterIiEE5emptyEv = comdat any

$_ZNSt14priority_queueIiSt6vectorIiSaIiEESt7greaterIiEED2Ev = comdat any

$_ZNSt12_Vector_baseIiSaIiEEC2Ev = comdat any

$_ZNSt12_Vector_baseIiSaIiEE12_Vector_implC2Ev = comdat any

$_ZNSaIiEC2Ev = comdat any

$_ZNSt12_Vector_baseIiSaIiEE17_Vector_impl_dataC2Ev = comdat any

$_ZN9__gnu_cxx13new_allocatorIiEC2Ev = comdat any

$_ZSt8_DestroyIPiiEvT_S1_RSaIT0_E = comdat any

$_ZNSt12_Vector_baseIiSaIiEE19_M_get_Tp_allocatorEv = comdat any

$_ZNSt12_Vector_baseIiSaIiEED2Ev = comdat any

$__clang_call_terminate = comdat any

$_ZSt8_DestroyIPiEvT_S1_ = comdat any

$_ZNSt12_Destroy_auxILb1EE9__destroyIPiEEvT_S3_ = comdat any

$_ZNSt12_Vector_baseIiSaIiEE13_M_deallocateEPim = comdat any

$_ZNSt12_Vector_baseIiSaIiEE12_Vector_implD2Ev = comdat any

$_ZNSt16allocator_traitsISaIiEE10deallocateERS0_Pim = comdat any

$_ZN9__gnu_cxx13new_allocatorIiE10deallocateEPim = comdat any

$_ZNSaIiED2Ev = comdat any

$_ZN9__gnu_cxx13new_allocatorIiED2Ev = comdat any

$_ZSt4moveIRSt6vectorIiSaIiEEEONSt16remove_referenceIT_E4typeEOS5_ = comdat any

$_ZNSt6vectorIiSaIiEEC2EOS1_ = comdat any

$_ZNSt6vectorIiSaIiEE6insertIPivEEN9__gnu_cxx17__normal_iteratorIS3_S1_EENS5_IPKiS1_EET_SA_ = comdat any

$_ZNSt6vectorIiSaIiEE3endEv = comdat any

$_ZN9__gnu_cxx17__normal_iteratorIPKiSt6vectorIiSaIiEEEC2IPiEERKNS0_IT_NS_11__enable_ifIXsr3std10__are_sameIS9_S8_EE7__valueES5_E6__typeEEE = comdat any

$_ZSt9make_heapIN9__gnu_cxx17__normal_iteratorIPiSt6vectorIiSaIiEEEESt7greaterIiEEvT_S9_T0_ = comdat any

$_ZNSt6vectorIiSaIiEE5beginEv = comdat any

$_ZNSt12_Vector_baseIiSaIiEEC2EOS1_ = comdat any

$_ZNSt12_Vector_baseIiSaIiEE12_Vector_implC2EOS2_ = comdat any

$_ZSt4moveIRNSt12_Vector_baseIiSaIiEE12_Vector_implEEONSt16remove_referenceIT_E4typeEOS6_ = comdat any

$_ZNSaIiEC2ERKS_ = comdat any

$_ZNSt12_Vector_baseIiSaIiEE17_Vector_impl_dataC2EOS2_ = comdat any

$_ZN9__gnu_cxx13new_allocatorIiEC2ERKS1_ = comdat any

$_ZN9__gnu_cxxmiIPKiSt6vectorIiSaIiEEEENS_17__normal_iteratorIT_T0_E15difference_typeERKS9_SC_ = comdat any

$_ZNKSt6vectorIiSaIiEE6cbeginEv = comdat any

$_ZNSt6vectorIiSaIiEE18_M_insert_dispatchIPiEEvN9__gnu_cxx17__normal_iteratorIS3_S1_EET_S7_St12__false_type = comdat any

$_ZNK9__gnu_cxx17__normal_iteratorIPiSt6vectorIiSaIiEEEplEl = comdat any

$_ZNK9__gnu_cxx17__normal_iteratorIPKiSt6vectorIiSaIiEEE4baseEv = comdat any

$_ZN9__gnu_cxx17__normal_iteratorIPKiSt6vectorIiSaIiEEEC2ERKS2_ = comdat any

$_ZNSt6vectorIiSaIiEE15_M_range_insertIPiEEvN9__gnu_cxx17__normal_iteratorIS3_S1_EET_S7_St20forward_iterator_tag = comdat any

$_ZSt19__iterator_categoryIPiENSt15iterator_traitsIT_E17iterator_categoryERKS2_ = comdat any

$_ZSt8distanceIPiENSt15iterator_traitsIT_E15difference_typeES2_S2_ = comdat any

$_ZN9__gnu_cxxmiIPiSt6vectorIiSaIiEEEENS_17__normal_iteratorIT_T0_E15difference_typeERKS8_SB_ = comdat any

$_ZSt22__uninitialized_move_aIPiS0_SaIiEET0_T_S3_S2_RT1_ = comdat any

$_ZSt13move_backwardIPiS0_ET0_T_S2_S1_ = comdat any

$_ZNK9__gnu_cxx17__normal_iteratorIPiSt6vectorIiSaIiEEE4baseEv = comdat any

$_ZSt4copyIPiN9__gnu_cxx17__normal_iteratorIS0_St6vectorIiSaIiEEEEET0_T_S8_S7_ = comdat any

$_ZSt7advanceIPimEvRT_T0_ = comdat any

$_ZSt22__uninitialized_copy_aIPiS0_iET0_T_S2_S1_RSaIT1_E = comdat any

$_ZNKSt6vectorIiSaIiEE12_M_check_lenEmPKc = comdat any

$_ZNSt12_Vector_baseIiSaIiEE11_M_allocateEm = comdat any

$_ZSt34__uninitialized_move_if_noexcept_aIPiS0_SaIiEET0_T_S3_S2_RT1_ = comdat any

$_ZSt10__distanceIPiENSt15iterator_traitsIT_E15difference_typeES2_S2_St26random_access_iterator_tag = comdat any

$_ZSt22__uninitialized_copy_aISt13move_iteratorIPiES1_iET0_T_S4_S3_RSaIT1_E = comdat any

$_ZSt18make_move_iteratorIPiESt13move_iteratorIT_ES2_ = comdat any

$_ZSt18uninitialized_copyISt13move_iteratorIPiES1_ET0_T_S4_S3_ = comdat any

$_ZNSt20__uninitialized_copyILb1EE13__uninit_copyISt13move_iteratorIPiES3_EET0_T_S6_S5_ = comdat any

$_ZSt4copyISt13move_iteratorIPiES1_ET0_T_S4_S3_ = comdat any

$_ZSt13__copy_move_aILb1EPiS0_ET1_T0_S2_S1_ = comdat any

$_ZSt12__miter_baseIPiEDTcl12__miter_basecldtfp_4baseEEESt13move_iteratorIT_E = comdat any

$_ZSt12__niter_wrapIPiET_RKS1_S1_ = comdat any

$_ZSt14__copy_move_a1ILb1EPiS0_ET1_T0_S2_S1_ = comdat any

$_ZSt12__niter_baseIPiET_S1_ = comdat any

$_ZSt14__copy_move_a2ILb1EPiS0_ET1_T0_S2_S1_ = comdat any

$_ZNSt11__copy_moveILb1ELb1ESt26random_access_iterator_tagE8__copy_mIiEEPT_PKS3_S6_S4_ = comdat any

$_ZSt12__miter_baseIPiET_S1_ = comdat any

$_ZNKSt13move_iteratorIPiE4baseEv = comdat any

$_ZSt4moveIRPiEONSt16remove_referenceIT_E4typeEOS3_ = comdat any

$_ZNSt13move_iteratorIPiEC2ES0_ = comdat any

$_ZSt22__copy_move_backward_aILb1EPiS0_ET1_T0_S2_S1_ = comdat any

$_ZSt23__copy_move_backward_a1ILb1EPiS0_ET1_T0_S2_S1_ = comdat any

$_ZSt23__copy_move_backward_a2ILb1EPiS0_ET1_T0_S2_S1_ = comdat any

$_ZNSt20__copy_move_backwardILb1ELb1ESt26random_access_iterator_tagE13__copy_move_bIiEEPT_PKS3_S6_S4_ = comdat any

$_ZSt13__copy_move_aILb0EPiN9__gnu_cxx17__normal_iteratorIS0_St6vectorIiSaIiEEEEET1_T0_S8_S7_ = comdat any

$_ZSt12__niter_wrapIN9__gnu_cxx17__normal_iteratorIPiSt6vectorIiSaIiEEEES2_ET_S7_T0_ = comdat any

$_ZSt14__copy_move_a1ILb0EPiS0_ET1_T0_S2_S1_ = comdat any

$_ZSt12__niter_baseIPiSt6vectorIiSaIiEEET_N9__gnu_cxx17__normal_iteratorIS4_T0_EE = comdat any

$_ZSt14__copy_move_a2ILb0EPiS0_ET1_T0_S2_S1_ = comdat any

$_ZNSt11__copy_moveILb0ELb1ESt26random_access_iterator_tagE8__copy_mIiEEPT_PKS3_S6_S4_ = comdat any

$_ZSt9__advanceIPilEvRT_T0_St26random_access_iterator_tag = comdat any

$_ZSt18uninitialized_copyIPiS0_ET0_T_S2_S1_ = comdat any

$_ZNSt20__uninitialized_copyILb1EE13__uninit_copyIPiS2_EET0_T_S4_S3_ = comdat any

$_ZSt4copyIPiS0_ET0_T_S2_S1_ = comdat any

$_ZSt13__copy_move_aILb0EPiS0_ET1_T0_S2_S1_ = comdat any

$_ZNKSt6vectorIiSaIiEE8max_sizeEv = comdat any

$_ZNKSt6vectorIiSaIiEE4sizeEv = comdat any

$_ZSt3maxImERKT_S2_S2_ = comdat any

$_ZNSt6vectorIiSaIiEE11_S_max_sizeERKS0_ = comdat any

$_ZNKSt12_Vector_baseIiSaIiEE19_M_get_Tp_allocatorEv = comdat any

$_ZNSt16allocator_traitsISaIiEE8max_sizeERKS0_ = comdat any

$_ZSt3minImERKT_S2_S2_ = comdat any

$_ZNK9__gnu_cxx13new_allocatorIiE8max_sizeEv = comdat any

$_ZNK9__gnu_cxx13new_allocatorIiE11_M_max_sizeEv = comdat any

$_ZNSt16allocator_traitsISaIiEE8allocateERS0_m = comdat any

$_ZN9__gnu_cxx13new_allocatorIiE8allocateEmPKv = comdat any

$_ZSt32__make_move_if_noexcept_iteratorIiSt13move_iteratorIPiEET0_PT_ = comdat any

$_ZN9__gnu_cxx17__normal_iteratorIPiSt6vectorIiSaIiEEEC2ERKS1_ = comdat any

$_ZSt4moveIRSt7greaterIiEEONSt16remove_referenceIT_E4typeEOS4_ = comdat any

$_ZN9__gnu_cxx5__ops15_Iter_comp_iterISt7greaterIiEEC2ES3_ = comdat any

$_ZSt11__make_heapIN9__gnu_cxx17__normal_iteratorIPiSt6vectorIiSaIiEEEENS0_5__ops15_Iter_comp_iterISt7greaterIiEEEEvT_SC_RT0_ = comdat any

$_ZSt4moveIRiEONSt16remove_referenceIT_E4typeEOS2_ = comdat any

$_ZNK9__gnu_cxx17__normal_iteratorIPiSt6vectorIiSaIiEEEdeEv = comdat any

$_ZSt13__adjust_heapIN9__gnu_cxx17__normal_iteratorIPiSt6vectorIiSaIiEEEEliNS0_5__ops15_Iter_comp_iterISt7greaterIiEEEEvT_T0_SD_T1_T2_ = comdat any

$_ZN9__gnu_cxx5__ops15_Iter_comp_iterISt7greaterIiEEclINS_17__normal_iteratorIPiSt6vectorIiSaIiEEEESB_EEbT_T0_ = comdat any

$_ZSt4moveIRN9__gnu_cxx5__ops15_Iter_comp_iterISt7greaterIiEEEEONSt16remove_referenceIT_E4typeEOS8_ = comdat any

$_ZN9__gnu_cxx5__ops14_Iter_comp_valISt7greaterIiEEC2EONS0_15_Iter_comp_iterIS3_EE = comdat any

$_ZSt11__push_heapIN9__gnu_cxx17__normal_iteratorIPiSt6vectorIiSaIiEEEEliNS0_5__ops14_Iter_comp_valISt7greaterIiEEEEvT_T0_SD_T1_RT2_ = comdat any

$_ZNKSt7greaterIiEclERKiS2_ = comdat any

$_ZN9__gnu_cxx5__ops14_Iter_comp_valISt7greaterIiEEclINS_17__normal_iteratorIPiSt6vectorIiSaIiEEEEiEEbT_RT0_ = comdat any

$_ZNKSt6vectorIiSaIiEE5frontEv = comdat any

$_ZNKSt6vectorIiSaIiEE5beginEv = comdat any

$_ZNK9__gnu_cxx17__normal_iteratorIPKiSt6vectorIiSaIiEEEdeEv = comdat any

$_ZSt8pop_heapIN9__gnu_cxx17__normal_iteratorIPiSt6vectorIiSaIiEEEESt7greaterIiEEvT_S9_T0_ = comdat any

$_ZNSt6vectorIiSaIiEE8pop_backEv = comdat any

$_ZN9__gnu_cxx17__normal_iteratorIPiSt6vectorIiSaIiEEEmmEv = comdat any

$_ZSt10__pop_heapIN9__gnu_cxx17__normal_iteratorIPiSt6vectorIiSaIiEEEENS0_5__ops15_Iter_comp_iterISt7greaterIiEEEEvT_SC_SC_RT0_ = comdat any

$_ZNSt16allocator_traitsISaIiEE7destroyIiEEvRS0_PT_ = comdat any

$_ZN9__gnu_cxx13new_allocatorIiE7destroyIiEEvPT_ = comdat any

$_ZNSt6vectorIiSaIiEE9push_backERKi = comdat any

$_ZSt9push_heapIN9__gnu_cxx17__normal_iteratorIPiSt6vectorIiSaIiEEEESt7greaterIiEEvT_S9_T0_ = comdat any

$_ZNSt16allocator_traitsISaIiEE9constructIiJRKiEEEvRS0_PT_DpOT0_ = comdat any

$_ZNSt6vectorIiSaIiEE17_M_realloc_insertIJRKiEEEvN9__gnu_cxx17__normal_iteratorIPiS1_EEDpOT_ = comdat any

$_ZN9__gnu_cxx13new_allocatorIiE9constructIiJRKiEEEvPT_DpOT0_ = comdat any

$_ZSt7forwardIRKiEOT_RNSt16remove_referenceIS2_E4typeE = comdat any

$_ZNSt6vectorIiSaIiEE11_S_relocateEPiS2_S2_RS0_ = comdat any

$_ZNSt6vectorIiSaIiEE14_S_do_relocateEPiS2_S2_RS0_St17integral_constantIbLb1EE = comdat any

$_ZSt12__relocate_aIPiS0_SaIiEET0_T_S3_S2_RT1_ = comdat any

$_ZSt14__relocate_a_1IiiENSt9enable_ifIXsr3std24__is_bitwise_relocatableIT_EE5valueEPS1_E4typeES2_S2_S2_RSaIT0_E = comdat any

$_ZN9__gnu_cxx5__ops14_Iter_comp_valISt7greaterIiEEC2ES3_ = comdat any

$_ZNK9__gnu_cxx17__normal_iteratorIPiSt6vectorIiSaIiEEEmiEl = comdat any

$_ZNKSt6vectorIiSaIiEE5emptyEv = comdat any

$_ZN9__gnu_cxxeqIPKiSt6vectorIiSaIiEEEEbRKNS_17__normal_iteratorIT_T0_EESB_ = comdat any

$_ZNKSt6vectorIiSaIiEE3endEv = comdat any

@_ZStL8__ioinit = internal global %"class.std::ios_base::Init" zeroinitializer, align 1
@__dso_handle = external hidden global i8
@_ZSt4cout = external dso_local global %"class.std::basic_ostream", align 8
@.str = private unnamed_addr constant [2 x i8] c" \00", align 1
@__const.main.arr = private unnamed_addr constant [6 x i32] [i32 2, i32 6, i32 3, i32 12, i32 56, i32 8], align 16
@.str.1 = private unnamed_addr constant [27 x i8] c"Following is sorted arrayn\00", align 1
@.str.2 = private unnamed_addr constant [24 x i8] c"vector::_M_range_insert\00", align 1
@.str.3 = private unnamed_addr constant [26 x i8] c"vector::_M_realloc_insert\00", align 1
@llvm.global_ctors = appending global [1 x { i32, void ()*, i8* }] [{ i32, void ()*, i8* } { i32 65535, void ()* @_GLOBAL__sub_I_Nearly_sorted_Algo.cpp, i8* null }]

; Function Attrs: noinline uwtable
define internal void @__cxx_global_var_init() #0 section ".text.startup" {
entry:
  call void @_ZNSt8ios_base4InitC1Ev(%"class.std::ios_base::Init"* @_ZStL8__ioinit)
  %0 = call i32 @__cxa_atexit(void (i8*)* bitcast (void (%"class.std::ios_base::Init"*)* @_ZNSt8ios_base4InitD1Ev to void (i8*)*), i8* getelementptr inbounds (%"class.std::ios_base::Init", %"class.std::ios_base::Init"* @_ZStL8__ioinit, i32 0, i32 0), i8* @__dso_handle) #3
  ret void
}

declare dso_local void @_ZNSt8ios_base4InitC1Ev(%"class.std::ios_base::Init"*) unnamed_addr #1

; Function Attrs: nounwind
declare dso_local void @_ZNSt8ios_base4InitD1Ev(%"class.std::ios_base::Init"*) unnamed_addr #2

; Function Attrs: nounwind
declare dso_local i32 @__cxa_atexit(void (i8*)*, i8*, i8*) #3

; Function Attrs: noinline uwtable
define dso_local i32 @_Z5sortKPiii(i32* %arr, i32 %n, i32 %k) #0 personality i8* bitcast (i32 (...)* @__gxx_personality_v0 to i8*) {
entry:
  %retval = alloca i32, align 4
  %arr.addr = alloca i32*, align 8
  %n.addr = alloca i32, align 4
  %k.addr = alloca i32, align 4
  %pq = alloca %"class.std::priority_queue", align 8
  %ref.tmp = alloca %"struct.std::greater", align 1
  %ref.tmp2 = alloca %"class.std::vector", align 8
  %exn.slot = alloca i8*
  %ehselector.slot = alloca i32
  %index = alloca i32, align 4
  %i = alloca i32, align 4
  store i32* %arr, i32** %arr.addr, align 8
  store i32 %n, i32* %n.addr, align 4
  store i32 %k, i32* %k.addr, align 4
  %0 = load i32*, i32** %arr.addr, align 8
  %1 = load i32*, i32** %arr.addr, align 8
  %2 = load i32, i32* %k.addr, align 4
  %idx.ext = sext i32 %2 to i64
  %add.ptr = getelementptr inbounds i32, i32* %1, i64 %idx.ext
  %add.ptr1 = getelementptr inbounds i32, i32* %add.ptr, i64 1
  %3 = bitcast %"class.std::vector"* %ref.tmp2 to i8*
  call void @llvm.memset.p0i8.i64(i8* align 8 %3, i8 0, i64 24, i1 false)
  call void @_ZNSt6vectorIiSaIiEEC2Ev(%"class.std::vector"* %ref.tmp2) #3
  invoke void @_ZNSt14priority_queueIiSt6vectorIiSaIiEESt7greaterIiEEC2IPiEET_S8_RKS4_OS2_(%"class.std::priority_queue"* %pq, i32* %0, i32* %add.ptr1, %"struct.std::greater"* dereferenceable(1) %ref.tmp, %"class.std::vector"* dereferenceable(24) %ref.tmp2)
          to label %invoke.cont unwind label %lpad

invoke.cont:                                      ; preds = %entry
  call void @_ZNSt6vectorIiSaIiEED2Ev(%"class.std::vector"* %ref.tmp2) #3
  store i32 0, i32* %index, align 4
  %4 = load i32, i32* %k.addr, align 4
  %add = add nsw i32 %4, 1
  store i32 %add, i32* %i, align 4
  br label %for.cond

for.cond:                                         ; preds = %for.inc, %invoke.cont
  %5 = load i32, i32* %i, align 4
  %6 = load i32, i32* %n.addr, align 4
  %cmp = icmp slt i32 %5, %6
  br i1 %cmp, label %for.body, label %for.end

for.body:                                         ; preds = %for.cond
  %call = invoke dereferenceable(4) i32* @_ZNKSt14priority_queueIiSt6vectorIiSaIiEESt7greaterIiEE3topEv(%"class.std::priority_queue"* %pq)
          to label %invoke.cont4 unwind label %lpad3

invoke.cont4:                                     ; preds = %for.body
  %7 = load i32, i32* %call, align 4
  %8 = load i32*, i32** %arr.addr, align 8
  %9 = load i32, i32* %index, align 4
  %inc = add nsw i32 %9, 1
  store i32 %inc, i32* %index, align 4
  %idxprom = sext i32 %9 to i64
  %arrayidx = getelementptr inbounds i32, i32* %8, i64 %idxprom
  store i32 %7, i32* %arrayidx, align 4
  invoke void @_ZNSt14priority_queueIiSt6vectorIiSaIiEESt7greaterIiEE3popEv(%"class.std::priority_queue"* %pq)
          to label %invoke.cont5 unwind label %lpad3

invoke.cont5:                                     ; preds = %invoke.cont4
  %10 = load i32*, i32** %arr.addr, align 8
  %11 = load i32, i32* %i, align 4
  %idxprom6 = sext i32 %11 to i64
  %arrayidx7 = getelementptr inbounds i32, i32* %10, i64 %idxprom6
  invoke void @_ZNSt14priority_queueIiSt6vectorIiSaIiEESt7greaterIiEE4pushERKi(%"class.std::priority_queue"* %pq, i32* dereferenceable(4) %arrayidx7)
          to label %invoke.cont8 unwind label %lpad3

invoke.cont8:                                     ; preds = %invoke.cont5
  br label %for.inc

for.inc:                                          ; preds = %invoke.cont8
  %12 = load i32, i32* %i, align 4
  %inc9 = add nsw i32 %12, 1
  store i32 %inc9, i32* %i, align 4
  br label %for.cond

lpad:                                             ; preds = %entry
  %13 = landingpad { i8*, i32 }
          cleanup
  %14 = extractvalue { i8*, i32 } %13, 0
  store i8* %14, i8** %exn.slot, align 8
  %15 = extractvalue { i8*, i32 } %13, 1
  store i32 %15, i32* %ehselector.slot, align 4
  call void @_ZNSt6vectorIiSaIiEED2Ev(%"class.std::vector"* %ref.tmp2) #3
  br label %eh.resume

lpad3:                                            ; preds = %invoke.cont13, %while.body, %while.cond, %invoke.cont5, %invoke.cont4, %for.body
  %16 = landingpad { i8*, i32 }
          cleanup
  %17 = extractvalue { i8*, i32 } %16, 0
  store i8* %17, i8** %exn.slot, align 8
  %18 = extractvalue { i8*, i32 } %16, 1
  store i32 %18, i32* %ehselector.slot, align 4
  call void @_ZNSt14priority_queueIiSt6vectorIiSaIiEESt7greaterIiEED2Ev(%"class.std::priority_queue"* %pq) #3
  br label %eh.resume

for.end:                                          ; preds = %for.cond
  br label %while.cond

while.cond:                                       ; preds = %invoke.cont18, %for.end
  %call11 = invoke zeroext i1 @_ZNKSt14priority_queueIiSt6vectorIiSaIiEESt7greaterIiEE5emptyEv(%"class.std::priority_queue"* %pq)
          to label %invoke.cont10 unwind label %lpad3

invoke.cont10:                                    ; preds = %while.cond
  %conv = zext i1 %call11 to i32
  %cmp12 = icmp eq i32 %conv, 0
  br i1 %cmp12, label %while.body, label %while.end

while.body:                                       ; preds = %invoke.cont10
  %call14 = invoke dereferenceable(4) i32* @_ZNKSt14priority_queueIiSt6vectorIiSaIiEESt7greaterIiEE3topEv(%"class.std::priority_queue"* %pq)
          to label %invoke.cont13 unwind label %lpad3

invoke.cont13:                                    ; preds = %while.body
  %19 = load i32, i32* %call14, align 4
  %20 = load i32*, i32** %arr.addr, align 8
  %21 = load i32, i32* %index, align 4
  %inc15 = add nsw i32 %21, 1
  store i32 %inc15, i32* %index, align 4
  %idxprom16 = sext i32 %21 to i64
  %arrayidx17 = getelementptr inbounds i32, i32* %20, i64 %idxprom16
  store i32 %19, i32* %arrayidx17, align 4
  invoke void @_ZNSt14priority_queueIiSt6vectorIiSaIiEESt7greaterIiEE3popEv(%"class.std::priority_queue"* %pq)
          to label %invoke.cont18 unwind label %lpad3

invoke.cont18:                                    ; preds = %invoke.cont13
  br label %while.cond

while.end:                                        ; preds = %invoke.cont10
  call void @llvm.trap()
  unreachable

return:                                           ; No predecessors!
  %22 = load i32, i32* %retval, align 4
  ret i32 %22

eh.resume:                                        ; preds = %lpad3, %lpad
  %exn = load i8*, i8** %exn.slot, align 8
  %sel = load i32, i32* %ehselector.slot, align 4
  %lpad.val = insertvalue { i8*, i32 } undef, i8* %exn, 0
  %lpad.val19 = insertvalue { i8*, i32 } %lpad.val, i32 %sel, 1
  resume { i8*, i32 } %lpad.val19
}

; Function Attrs: argmemonly nounwind
declare void @llvm.memset.p0i8.i64(i8* nocapture writeonly, i8, i64, i1) #4

; Function Attrs: noinline nounwind uwtable
define linkonce_odr dso_local void @_ZNSt6vectorIiSaIiEEC2Ev(%"class.std::vector"* %this) unnamed_addr #5 comdat align 2 {
entry:
  %this.addr = alloca %"class.std::vector"*, align 8
  store %"class.std::vector"* %this, %"class.std::vector"** %this.addr, align 8
  %this1 = load %"class.std::vector"*, %"class.std::vector"** %this.addr, align 8
  %0 = bitcast %"class.std::vector"* %this1 to %"struct.std::_Vector_base"*
  call void @_ZNSt12_Vector_baseIiSaIiEEC2Ev(%"struct.std::_Vector_base"* %0) #3
  ret void
}

; Function Attrs: noinline uwtable
define linkonce_odr dso_local void @_ZNSt14priority_queueIiSt6vectorIiSaIiEESt7greaterIiEEC2IPiEET_S8_RKS4_OS2_(%"class.std::priority_queue"* %this, i32* %__first, i32* %__last, %"struct.std::greater"* dereferenceable(1) %__x, %"class.std::vector"* dereferenceable(24) %__s) unnamed_addr #0 comdat align 2 personality i8* bitcast (i32 (...)* @__gxx_personality_v0 to i8*) {
entry:
  %this.addr = alloca %"class.std::priority_queue"*, align 8
  %__first.addr = alloca i32*, align 8
  %__last.addr = alloca i32*, align 8
  %__x.addr = alloca %"struct.std::greater"*, align 8
  %__s.addr = alloca %"class.std::vector"*, align 8
  %agg.tmp = alloca %"class.__gnu_cxx::__normal_iterator.0", align 8
  %ref.tmp = alloca %"class.__gnu_cxx::__normal_iterator", align 8
  %exn.slot = alloca i8*
  %ehselector.slot = alloca i32
  %coerce = alloca %"class.__gnu_cxx::__normal_iterator", align 8
  %agg.tmp8 = alloca %"class.__gnu_cxx::__normal_iterator", align 8
  %agg.tmp12 = alloca %"class.__gnu_cxx::__normal_iterator", align 8
  %agg.tmp16 = alloca %"struct.std::greater", align 1
  store %"class.std::priority_queue"* %this, %"class.std::priority_queue"** %this.addr, align 8
  store i32* %__first, i32** %__first.addr, align 8
  store i32* %__last, i32** %__last.addr, align 8
  store %"struct.std::greater"* %__x, %"struct.std::greater"** %__x.addr, align 8
  store %"class.std::vector"* %__s, %"class.std::vector"** %__s.addr, align 8
  %this1 = load %"class.std::priority_queue"*, %"class.std::priority_queue"** %this.addr, align 8
  %c = getelementptr inbounds %"class.std::priority_queue", %"class.std::priority_queue"* %this1, i32 0, i32 0
  %0 = load %"class.std::vector"*, %"class.std::vector"** %__s.addr, align 8
  %call = call dereferenceable(24) %"class.std::vector"* @_ZSt4moveIRSt6vectorIiSaIiEEEONSt16remove_referenceIT_E4typeEOS5_(%"class.std::vector"* dereferenceable(24) %0) #3
  call void @_ZNSt6vectorIiSaIiEEC2EOS1_(%"class.std::vector"* %c, %"class.std::vector"* dereferenceable(24) %call) #3
  %comp = getelementptr inbounds %"class.std::priority_queue", %"class.std::priority_queue"* %this1, i32 0, i32 1
  %1 = load %"struct.std::greater"*, %"struct.std::greater"** %__x.addr, align 8
  %c2 = getelementptr inbounds %"class.std::priority_queue", %"class.std::priority_queue"* %this1, i32 0, i32 0
  %c3 = getelementptr inbounds %"class.std::priority_queue", %"class.std::priority_queue"* %this1, i32 0, i32 0
  %call4 = call i32* @_ZNSt6vectorIiSaIiEE3endEv(%"class.std::vector"* %c3) #3
  %coerce.dive = getelementptr inbounds %"class.__gnu_cxx::__normal_iterator", %"class.__gnu_cxx::__normal_iterator"* %ref.tmp, i32 0, i32 0
  store i32* %call4, i32** %coerce.dive, align 8
  call void @_ZN9__gnu_cxx17__normal_iteratorIPKiSt6vectorIiSaIiEEEC2IPiEERKNS0_IT_NS_11__enable_ifIXsr3std10__are_sameIS9_S8_EE7__valueES5_E6__typeEEE(%"class.__gnu_cxx::__normal_iterator.0"* %agg.tmp, %"class.__gnu_cxx::__normal_iterator"* dereferenceable(8) %ref.tmp) #3
  %2 = load i32*, i32** %__first.addr, align 8
  %3 = load i32*, i32** %__last.addr, align 8
  %coerce.dive5 = getelementptr inbounds %"class.__gnu_cxx::__normal_iterator.0", %"class.__gnu_cxx::__normal_iterator.0"* %agg.tmp, i32 0, i32 0
  %4 = load i32*, i32** %coerce.dive5, align 8
  %call6 = invoke i32* @_ZNSt6vectorIiSaIiEE6insertIPivEEN9__gnu_cxx17__normal_iteratorIS3_S1_EENS5_IPKiS1_EET_SA_(%"class.std::vector"* %c2, i32* %4, i32* %2, i32* %3)
          to label %invoke.cont unwind label %lpad

invoke.cont:                                      ; preds = %entry
  %coerce.dive7 = getelementptr inbounds %"class.__gnu_cxx::__normal_iterator", %"class.__gnu_cxx::__normal_iterator"* %coerce, i32 0, i32 0
  store i32* %call6, i32** %coerce.dive7, align 8
  %c9 = getelementptr inbounds %"class.std::priority_queue", %"class.std::priority_queue"* %this1, i32 0, i32 0
  %call10 = call i32* @_ZNSt6vectorIiSaIiEE5beginEv(%"class.std::vector"* %c9) #3
  %coerce.dive11 = getelementptr inbounds %"class.__gnu_cxx::__normal_iterator", %"class.__gnu_cxx::__normal_iterator"* %agg.tmp8, i32 0, i32 0
  store i32* %call10, i32** %coerce.dive11, align 8
  %c13 = getelementptr inbounds %"class.std::priority_queue", %"class.std::priority_queue"* %this1, i32 0, i32 0
  %call14 = call i32* @_ZNSt6vectorIiSaIiEE3endEv(%"class.std::vector"* %c13) #3
  %coerce.dive15 = getelementptr inbounds %"class.__gnu_cxx::__normal_iterator", %"class.__gnu_cxx::__normal_iterator"* %agg.tmp12, i32 0, i32 0
  store i32* %call14, i32** %coerce.dive15, align 8
  %comp17 = getelementptr inbounds %"class.std::priority_queue", %"class.std::priority_queue"* %this1, i32 0, i32 1
  %coerce.dive18 = getelementptr inbounds %"class.__gnu_cxx::__normal_iterator", %"class.__gnu_cxx::__normal_iterator"* %agg.tmp8, i32 0, i32 0
  %5 = load i32*, i32** %coerce.dive18, align 8
  %coerce.dive19 = getelementptr inbounds %"class.__gnu_cxx::__normal_iterator", %"class.__gnu_cxx::__normal_iterator"* %agg.tmp12, i32 0, i32 0
  %6 = load i32*, i32** %coerce.dive19, align 8
  invoke void @_ZSt9make_heapIN9__gnu_cxx17__normal_iteratorIPiSt6vectorIiSaIiEEEESt7greaterIiEEvT_S9_T0_(i32* %5, i32* %6)
          to label %invoke.cont20 unwind label %lpad

invoke.cont20:                                    ; preds = %invoke.cont
  ret void

lpad:                                             ; preds = %invoke.cont, %entry
  %7 = landingpad { i8*, i32 }
          cleanup
  %8 = extractvalue { i8*, i32 } %7, 0
  store i8* %8, i8** %exn.slot, align 8
  %9 = extractvalue { i8*, i32 } %7, 1
  store i32 %9, i32* %ehselector.slot, align 4
  call void @_ZNSt6vectorIiSaIiEED2Ev(%"class.std::vector"* %c) #3
  br label %eh.resume

eh.resume:                                        ; preds = %lpad
  %exn = load i8*, i8** %exn.slot, align 8
  %sel = load i32, i32* %ehselector.slot, align 4
  %lpad.val = insertvalue { i8*, i32 } undef, i8* %exn, 0
  %lpad.val21 = insertvalue { i8*, i32 } %lpad.val, i32 %sel, 1
  resume { i8*, i32 } %lpad.val21
}

declare dso_local i32 @__gxx_personality_v0(...)

; Function Attrs: noinline nounwind uwtable
define linkonce_odr dso_local void @_ZNSt6vectorIiSaIiEED2Ev(%"class.std::vector"* %this) unnamed_addr #5 comdat align 2 personality i8* bitcast (i32 (...)* @__gxx_personality_v0 to i8*) {
entry:
  %this.addr = alloca %"class.std::vector"*, align 8
  %exn.slot = alloca i8*
  %ehselector.slot = alloca i32
  store %"class.std::vector"* %this, %"class.std::vector"** %this.addr, align 8
  %this1 = load %"class.std::vector"*, %"class.std::vector"** %this.addr, align 8
  %0 = bitcast %"class.std::vector"* %this1 to %"struct.std::_Vector_base"*
  %_M_impl = getelementptr inbounds %"struct.std::_Vector_base", %"struct.std::_Vector_base"* %0, i32 0, i32 0
  %1 = bitcast %"struct.std::_Vector_base<int, std::allocator<int> >::_Vector_impl"* %_M_impl to %"struct.std::_Vector_base<int, std::allocator<int> >::_Vector_impl_data"*
  %_M_start = getelementptr inbounds %"struct.std::_Vector_base<int, std::allocator<int> >::_Vector_impl_data", %"struct.std::_Vector_base<int, std::allocator<int> >::_Vector_impl_data"* %1, i32 0, i32 0
  %2 = load i32*, i32** %_M_start, align 8
  %3 = bitcast %"class.std::vector"* %this1 to %"struct.std::_Vector_base"*
  %_M_impl2 = getelementptr inbounds %"struct.std::_Vector_base", %"struct.std::_Vector_base"* %3, i32 0, i32 0
  %4 = bitcast %"struct.std::_Vector_base<int, std::allocator<int> >::_Vector_impl"* %_M_impl2 to %"struct.std::_Vector_base<int, std::allocator<int> >::_Vector_impl_data"*
  %_M_finish = getelementptr inbounds %"struct.std::_Vector_base<int, std::allocator<int> >::_Vector_impl_data", %"struct.std::_Vector_base<int, std::allocator<int> >::_Vector_impl_data"* %4, i32 0, i32 1
  %5 = load i32*, i32** %_M_finish, align 8
  %6 = bitcast %"class.std::vector"* %this1 to %"struct.std::_Vector_base"*
  %call = call dereferenceable(1) %"class.std::allocator"* @_ZNSt12_Vector_baseIiSaIiEE19_M_get_Tp_allocatorEv(%"struct.std::_Vector_base"* %6) #3
  invoke void @_ZSt8_DestroyIPiiEvT_S1_RSaIT0_E(i32* %2, i32* %5, %"class.std::allocator"* dereferenceable(1) %call)
          to label %invoke.cont unwind label %lpad

invoke.cont:                                      ; preds = %entry
  %7 = bitcast %"class.std::vector"* %this1 to %"struct.std::_Vector_base"*
  call void @_ZNSt12_Vector_baseIiSaIiEED2Ev(%"struct.std::_Vector_base"* %7) #3
  ret void

lpad:                                             ; preds = %entry
  %8 = landingpad { i8*, i32 }
          catch i8* null
  %9 = extractvalue { i8*, i32 } %8, 0
  store i8* %9, i8** %exn.slot, align 8
  %10 = extractvalue { i8*, i32 } %8, 1
  store i32 %10, i32* %ehselector.slot, align 4
  %11 = bitcast %"class.std::vector"* %this1 to %"struct.std::_Vector_base"*
  call void @_ZNSt12_Vector_baseIiSaIiEED2Ev(%"struct.std::_Vector_base"* %11) #3
  br label %terminate.handler

terminate.handler:                                ; preds = %lpad
  %exn = load i8*, i8** %exn.slot, align 8
  call void @__clang_call_terminate(i8* %exn) #12
  unreachable
}

; Function Attrs: noinline nounwind uwtable
define linkonce_odr dso_local dereferenceable(4) i32* @_ZNKSt14priority_queueIiSt6vectorIiSaIiEESt7greaterIiEE3topEv(%"class.std::priority_queue"* %this) #5 comdat align 2 {
entry:
  %this.addr = alloca %"class.std::priority_queue"*, align 8
  store %"class.std::priority_queue"* %this, %"class.std::priority_queue"** %this.addr, align 8
  %this1 = load %"class.std::priority_queue"*, %"class.std::priority_queue"** %this.addr, align 8
  %c = getelementptr inbounds %"class.std::priority_queue", %"class.std::priority_queue"* %this1, i32 0, i32 0
  %call = call dereferenceable(4) i32* @_ZNKSt6vectorIiSaIiEE5frontEv(%"class.std::vector"* %c) #3
  ret i32* %call
}

; Function Attrs: noinline uwtable
define linkonce_odr dso_local void @_ZNSt14priority_queueIiSt6vectorIiSaIiEESt7greaterIiEE3popEv(%"class.std::priority_queue"* %this) #0 comdat align 2 {
entry:
  %this.addr = alloca %"class.std::priority_queue"*, align 8
  %agg.tmp = alloca %"class.__gnu_cxx::__normal_iterator", align 8
  %agg.tmp2 = alloca %"class.__gnu_cxx::__normal_iterator", align 8
  %agg.tmp6 = alloca %"struct.std::greater", align 1
  store %"class.std::priority_queue"* %this, %"class.std::priority_queue"** %this.addr, align 8
  %this1 = load %"class.std::priority_queue"*, %"class.std::priority_queue"** %this.addr, align 8
  %c = getelementptr inbounds %"class.std::priority_queue", %"class.std::priority_queue"* %this1, i32 0, i32 0
  %call = call i32* @_ZNSt6vectorIiSaIiEE5beginEv(%"class.std::vector"* %c) #3
  %coerce.dive = getelementptr inbounds %"class.__gnu_cxx::__normal_iterator", %"class.__gnu_cxx::__normal_iterator"* %agg.tmp, i32 0, i32 0
  store i32* %call, i32** %coerce.dive, align 8
  %c3 = getelementptr inbounds %"class.std::priority_queue", %"class.std::priority_queue"* %this1, i32 0, i32 0
  %call4 = call i32* @_ZNSt6vectorIiSaIiEE3endEv(%"class.std::vector"* %c3) #3
  %coerce.dive5 = getelementptr inbounds %"class.__gnu_cxx::__normal_iterator", %"class.__gnu_cxx::__normal_iterator"* %agg.tmp2, i32 0, i32 0
  store i32* %call4, i32** %coerce.dive5, align 8
  %comp = getelementptr inbounds %"class.std::priority_queue", %"class.std::priority_queue"* %this1, i32 0, i32 1
  %coerce.dive7 = getelementptr inbounds %"class.__gnu_cxx::__normal_iterator", %"class.__gnu_cxx::__normal_iterator"* %agg.tmp, i32 0, i32 0
  %0 = load i32*, i32** %coerce.dive7, align 8
  %coerce.dive8 = getelementptr inbounds %"class.__gnu_cxx::__normal_iterator", %"class.__gnu_cxx::__normal_iterator"* %agg.tmp2, i32 0, i32 0
  %1 = load i32*, i32** %coerce.dive8, align 8
  call void @_ZSt8pop_heapIN9__gnu_cxx17__normal_iteratorIPiSt6vectorIiSaIiEEEESt7greaterIiEEvT_S9_T0_(i32* %0, i32* %1)
  %c9 = getelementptr inbounds %"class.std::priority_queue", %"class.std::priority_queue"* %this1, i32 0, i32 0
  call void @_ZNSt6vectorIiSaIiEE8pop_backEv(%"class.std::vector"* %c9) #3
  ret void
}

; Function Attrs: noinline uwtable
define linkonce_odr dso_local void @_ZNSt14priority_queueIiSt6vectorIiSaIiEESt7greaterIiEE4pushERKi(%"class.std::priority_queue"* %this, i32* dereferenceable(4) %__x) #0 comdat align 2 {
entry:
  %this.addr = alloca %"class.std::priority_queue"*, align 8
  %__x.addr = alloca i32*, align 8
  %agg.tmp = alloca %"class.__gnu_cxx::__normal_iterator", align 8
  %agg.tmp3 = alloca %"class.__gnu_cxx::__normal_iterator", align 8
  %agg.tmp7 = alloca %"struct.std::greater", align 1
  store %"class.std::priority_queue"* %this, %"class.std::priority_queue"** %this.addr, align 8
  store i32* %__x, i32** %__x.addr, align 8
  %this1 = load %"class.std::priority_queue"*, %"class.std::priority_queue"** %this.addr, align 8
  %c = getelementptr inbounds %"class.std::priority_queue", %"class.std::priority_queue"* %this1, i32 0, i32 0
  %0 = load i32*, i32** %__x.addr, align 8
  call void @_ZNSt6vectorIiSaIiEE9push_backERKi(%"class.std::vector"* %c, i32* dereferenceable(4) %0)
  %c2 = getelementptr inbounds %"class.std::priority_queue", %"class.std::priority_queue"* %this1, i32 0, i32 0
  %call = call i32* @_ZNSt6vectorIiSaIiEE5beginEv(%"class.std::vector"* %c2) #3
  %coerce.dive = getelementptr inbounds %"class.__gnu_cxx::__normal_iterator", %"class.__gnu_cxx::__normal_iterator"* %agg.tmp, i32 0, i32 0
  store i32* %call, i32** %coerce.dive, align 8
  %c4 = getelementptr inbounds %"class.std::priority_queue", %"class.std::priority_queue"* %this1, i32 0, i32 0
  %call5 = call i32* @_ZNSt6vectorIiSaIiEE3endEv(%"class.std::vector"* %c4) #3
  %coerce.dive6 = getelementptr inbounds %"class.__gnu_cxx::__normal_iterator", %"class.__gnu_cxx::__normal_iterator"* %agg.tmp3, i32 0, i32 0
  store i32* %call5, i32** %coerce.dive6, align 8
  %comp = getelementptr inbounds %"class.std::priority_queue", %"class.std::priority_queue"* %this1, i32 0, i32 1
  %coerce.dive8 = getelementptr inbounds %"class.__gnu_cxx::__normal_iterator", %"class.__gnu_cxx::__normal_iterator"* %agg.tmp, i32 0, i32 0
  %1 = load i32*, i32** %coerce.dive8, align 8
  %coerce.dive9 = getelementptr inbounds %"class.__gnu_cxx::__normal_iterator", %"class.__gnu_cxx::__normal_iterator"* %agg.tmp3, i32 0, i32 0
  %2 = load i32*, i32** %coerce.dive9, align 8
  call void @_ZSt9push_heapIN9__gnu_cxx17__normal_iteratorIPiSt6vectorIiSaIiEEEESt7greaterIiEEvT_S9_T0_(i32* %1, i32* %2)
  ret void
}

; Function Attrs: noinline nounwind uwtable
define linkonce_odr dso_local zeroext i1 @_ZNKSt14priority_queueIiSt6vectorIiSaIiEESt7greaterIiEE5emptyEv(%"class.std::priority_queue"* %this) #5 comdat align 2 {
entry:
  %this.addr = alloca %"class.std::priority_queue"*, align 8
  store %"class.std::priority_queue"* %this, %"class.std::priority_queue"** %this.addr, align 8
  %this1 = load %"class.std::priority_queue"*, %"class.std::priority_queue"** %this.addr, align 8
  %c = getelementptr inbounds %"class.std::priority_queue", %"class.std::priority_queue"* %this1, i32 0, i32 0
  %call = call zeroext i1 @_ZNKSt6vectorIiSaIiEE5emptyEv(%"class.std::vector"* %c) #3
  ret i1 %call
}

; Function Attrs: cold noreturn nounwind
declare void @llvm.trap() #6

; Function Attrs: noinline nounwind uwtable
define linkonce_odr dso_local void @_ZNSt14priority_queueIiSt6vectorIiSaIiEESt7greaterIiEED2Ev(%"class.std::priority_queue"* %this) unnamed_addr #5 comdat align 2 {
entry:
  %this.addr = alloca %"class.std::priority_queue"*, align 8
  store %"class.std::priority_queue"* %this, %"class.std::priority_queue"** %this.addr, align 8
  %this1 = load %"class.std::priority_queue"*, %"class.std::priority_queue"** %this.addr, align 8
  %c = getelementptr inbounds %"class.std::priority_queue", %"class.std::priority_queue"* %this1, i32 0, i32 0
  call void @_ZNSt6vectorIiSaIiEED2Ev(%"class.std::vector"* %c) #3
  ret void
}

; Function Attrs: noinline uwtable
define dso_local void @_Z10printArrayPii(i32* %arr, i32 %size) #0 {
entry:
  %arr.addr = alloca i32*, align 8
  %size.addr = alloca i32, align 4
  %i = alloca i32, align 4
  store i32* %arr, i32** %arr.addr, align 8
  store i32 %size, i32* %size.addr, align 4
  store i32 0, i32* %i, align 4
  br label %for.cond

for.cond:                                         ; preds = %for.inc, %entry
  %0 = load i32, i32* %i, align 4
  %1 = load i32, i32* %size.addr, align 4
  %cmp = icmp slt i32 %0, %1
  br i1 %cmp, label %for.body, label %for.end

for.body:                                         ; preds = %for.cond
  %2 = load i32*, i32** %arr.addr, align 8
  %3 = load i32, i32* %i, align 4
  %idxprom = sext i32 %3 to i64
  %arrayidx = getelementptr inbounds i32, i32* %2, i64 %idxprom
  %4 = load i32, i32* %arrayidx, align 4
  %call = call dereferenceable(272) %"class.std::basic_ostream"* @_ZNSolsEi(%"class.std::basic_ostream"* @_ZSt4cout, i32 %4)
  %call1 = call dereferenceable(272) %"class.std::basic_ostream"* @_ZStlsISt11char_traitsIcEERSt13basic_ostreamIcT_ES5_PKc(%"class.std::basic_ostream"* dereferenceable(272) %call, i8* getelementptr inbounds ([2 x i8], [2 x i8]* @.str, i32 0, i32 0))
  br label %for.inc

for.inc:                                          ; preds = %for.body
  %5 = load i32, i32* %i, align 4
  %inc = add nsw i32 %5, 1
  store i32 %inc, i32* %i, align 4
  br label %for.cond

for.end:                                          ; preds = %for.cond
  %call2 = call dereferenceable(272) %"class.std::basic_ostream"* @_ZNSolsEPFRSoS_E(%"class.std::basic_ostream"* @_ZSt4cout, %"class.std::basic_ostream"* (%"class.std::basic_ostream"*)* @_ZSt4endlIcSt11char_traitsIcEERSt13basic_ostreamIT_T0_ES6_)
  ret void
}

declare dso_local dereferenceable(272) %"class.std::basic_ostream"* @_ZStlsISt11char_traitsIcEERSt13basic_ostreamIcT_ES5_PKc(%"class.std::basic_ostream"* dereferenceable(272), i8*) #1

declare dso_local dereferenceable(272) %"class.std::basic_ostream"* @_ZNSolsEi(%"class.std::basic_ostream"*, i32) #1

declare dso_local dereferenceable(272) %"class.std::basic_ostream"* @_ZNSolsEPFRSoS_E(%"class.std::basic_ostream"*, %"class.std::basic_ostream"* (%"class.std::basic_ostream"*)*) #1

declare dso_local dereferenceable(272) %"class.std::basic_ostream"* @_ZSt4endlIcSt11char_traitsIcEERSt13basic_ostreamIT_T0_ES6_(%"class.std::basic_ostream"* dereferenceable(272)) #1

; Function Attrs: noinline norecurse uwtable
define dso_local i32 @main() #7 {
entry:
  %retval = alloca i32, align 4
  %k = alloca i32, align 4
  %arr = alloca [6 x i32], align 16
  %n = alloca i32, align 4
  store i32 0, i32* %retval, align 4
  store i32 3, i32* %k, align 4
  %0 = bitcast [6 x i32]* %arr to i8*
  call void @llvm.memcpy.p0i8.p0i8.i64(i8* align 16 %0, i8* align 16 bitcast ([6 x i32]* @__const.main.arr to i8*), i64 24, i1 false)
  store i32 6, i32* %n, align 4
  %arraydecay = getelementptr inbounds [6 x i32], [6 x i32]* %arr, i32 0, i32 0
  %1 = load i32, i32* %n, align 4
  %2 = load i32, i32* %k, align 4
  %call = call i32 @_Z5sortKPiii(i32* %arraydecay, i32 %1, i32 %2)
  %call1 = call dereferenceable(272) %"class.std::basic_ostream"* @_ZStlsISt11char_traitsIcEERSt13basic_ostreamIcT_ES5_PKc(%"class.std::basic_ostream"* dereferenceable(272) @_ZSt4cout, i8* getelementptr inbounds ([27 x i8], [27 x i8]* @.str.1, i32 0, i32 0))
  %arraydecay2 = getelementptr inbounds [6 x i32], [6 x i32]* %arr, i32 0, i32 0
  %3 = load i32, i32* %n, align 4
  call void @_Z10printArrayPii(i32* %arraydecay2, i32 %3)
  ret i32 0
}

; Function Attrs: argmemonly nounwind
declare void @llvm.memcpy.p0i8.p0i8.i64(i8* nocapture writeonly, i8* nocapture readonly, i64, i1) #4

; Function Attrs: noinline nounwind uwtable
define linkonce_odr dso_local void @_ZNSt12_Vector_baseIiSaIiEEC2Ev(%"struct.std::_Vector_base"* %this) unnamed_addr #5 comdat align 2 {
entry:
  %this.addr = alloca %"struct.std::_Vector_base"*, align 8
  store %"struct.std::_Vector_base"* %this, %"struct.std::_Vector_base"** %this.addr, align 8
  %this1 = load %"struct.std::_Vector_base"*, %"struct.std::_Vector_base"** %this.addr, align 8
  %_M_impl = getelementptr inbounds %"struct.std::_Vector_base", %"struct.std::_Vector_base"* %this1, i32 0, i32 0
  call void @_ZNSt12_Vector_baseIiSaIiEE12_Vector_implC2Ev(%"struct.std::_Vector_base<int, std::allocator<int> >::_Vector_impl"* %_M_impl) #3
  ret void
}

; Function Attrs: noinline nounwind uwtable
define linkonce_odr dso_local void @_ZNSt12_Vector_baseIiSaIiEE12_Vector_implC2Ev(%"struct.std::_Vector_base<int, std::allocator<int> >::_Vector_impl"* %this) unnamed_addr #5 comdat align 2 {
entry:
  %this.addr = alloca %"struct.std::_Vector_base<int, std::allocator<int> >::_Vector_impl"*, align 8
  store %"struct.std::_Vector_base<int, std::allocator<int> >::_Vector_impl"* %this, %"struct.std::_Vector_base<int, std::allocator<int> >::_Vector_impl"** %this.addr, align 8
  %this1 = load %"struct.std::_Vector_base<int, std::allocator<int> >::_Vector_impl"*, %"struct.std::_Vector_base<int, std::allocator<int> >::_Vector_impl"** %this.addr, align 8
  %0 = bitcast %"struct.std::_Vector_base<int, std::allocator<int> >::_Vector_impl"* %this1 to %"class.std::allocator"*
  call void @_ZNSaIiEC2Ev(%"class.std::allocator"* %0) #3
  %1 = bitcast %"struct.std::_Vector_base<int, std::allocator<int> >::_Vector_impl"* %this1 to %"struct.std::_Vector_base<int, std::allocator<int> >::_Vector_impl_data"*
  call void @_ZNSt12_Vector_baseIiSaIiEE17_Vector_impl_dataC2Ev(%"struct.std::_Vector_base<int, std::allocator<int> >::_Vector_impl_data"* %1) #3
  ret void
}

; Function Attrs: noinline nounwind uwtable
define linkonce_odr dso_local void @_ZNSaIiEC2Ev(%"class.std::allocator"* %this) unnamed_addr #5 comdat align 2 {
entry:
  %this.addr = alloca %"class.std::allocator"*, align 8
  store %"class.std::allocator"* %this, %"class.std::allocator"** %this.addr, align 8
  %this1 = load %"class.std::allocator"*, %"class.std::allocator"** %this.addr, align 8
  %0 = bitcast %"class.std::allocator"* %this1 to %"class.__gnu_cxx::new_allocator"*
  call void @_ZN9__gnu_cxx13new_allocatorIiEC2Ev(%"class.__gnu_cxx::new_allocator"* %0) #3
  ret void
}

; Function Attrs: noinline nounwind uwtable
define linkonce_odr dso_local void @_ZNSt12_Vector_baseIiSaIiEE17_Vector_impl_dataC2Ev(%"struct.std::_Vector_base<int, std::allocator<int> >::_Vector_impl_data"* %this) unnamed_addr #5 comdat align 2 {
entry:
  %this.addr = alloca %"struct.std::_Vector_base<int, std::allocator<int> >::_Vector_impl_data"*, align 8
  store %"struct.std::_Vector_base<int, std::allocator<int> >::_Vector_impl_data"* %this, %"struct.std::_Vector_base<int, std::allocator<int> >::_Vector_impl_data"** %this.addr, align 8
  %this1 = load %"struct.std::_Vector_base<int, std::allocator<int> >::_Vector_impl_data"*, %"struct.std::_Vector_base<int, std::allocator<int> >::_Vector_impl_data"** %this.addr, align 8
  %_M_start = getelementptr inbounds %"struct.std::_Vector_base<int, std::allocator<int> >::_Vector_impl_data", %"struct.std::_Vector_base<int, std::allocator<int> >::_Vector_impl_data"* %this1, i32 0, i32 0
  store i32* null, i32** %_M_start, align 8
  %_M_finish = getelementptr inbounds %"struct.std::_Vector_base<int, std::allocator<int> >::_Vector_impl_data", %"struct.std::_Vector_base<int, std::allocator<int> >::_Vector_impl_data"* %this1, i32 0, i32 1
  store i32* null, i32** %_M_finish, align 8
  %_M_end_of_storage = getelementptr inbounds %"struct.std::_Vector_base<int, std::allocator<int> >::_Vector_impl_data", %"struct.std::_Vector_base<int, std::allocator<int> >::_Vector_impl_data"* %this1, i32 0, i32 2
  store i32* null, i32** %_M_end_of_storage, align 8
  ret void
}

; Function Attrs: noinline nounwind uwtable
define linkonce_odr dso_local void @_ZN9__gnu_cxx13new_allocatorIiEC2Ev(%"class.__gnu_cxx::new_allocator"* %this) unnamed_addr #5 comdat align 2 {
entry:
  %this.addr = alloca %"class.__gnu_cxx::new_allocator"*, align 8
  store %"class.__gnu_cxx::new_allocator"* %this, %"class.__gnu_cxx::new_allocator"** %this.addr, align 8
  %this1 = load %"class.__gnu_cxx::new_allocator"*, %"class.__gnu_cxx::new_allocator"** %this.addr, align 8
  ret void
}

; Function Attrs: noinline uwtable
define linkonce_odr dso_local void @_ZSt8_DestroyIPiiEvT_S1_RSaIT0_E(i32* %__first, i32* %__last, %"class.std::allocator"* dereferenceable(1)) #0 comdat {
entry:
  %__first.addr = alloca i32*, align 8
  %__last.addr = alloca i32*, align 8
  %.addr = alloca %"class.std::allocator"*, align 8
  store i32* %__first, i32** %__first.addr, align 8
  store i32* %__last, i32** %__last.addr, align 8
  store %"class.std::allocator"* %0, %"class.std::allocator"** %.addr, align 8
  %1 = load i32*, i32** %__first.addr, align 8
  %2 = load i32*, i32** %__last.addr, align 8
  call void @_ZSt8_DestroyIPiEvT_S1_(i32* %1, i32* %2)
  ret void
}

; Function Attrs: noinline nounwind uwtable
define linkonce_odr dso_local dereferenceable(1) %"class.std::allocator"* @_ZNSt12_Vector_baseIiSaIiEE19_M_get_Tp_allocatorEv(%"struct.std::_Vector_base"* %this) #5 comdat align 2 {
entry:
  %this.addr = alloca %"struct.std::_Vector_base"*, align 8
  store %"struct.std::_Vector_base"* %this, %"struct.std::_Vector_base"** %this.addr, align 8
  %this1 = load %"struct.std::_Vector_base"*, %"struct.std::_Vector_base"** %this.addr, align 8
  %_M_impl = getelementptr inbounds %"struct.std::_Vector_base", %"struct.std::_Vector_base"* %this1, i32 0, i32 0
  %0 = bitcast %"struct.std::_Vector_base<int, std::allocator<int> >::_Vector_impl"* %_M_impl to %"class.std::allocator"*
  ret %"class.std::allocator"* %0
}

; Function Attrs: noinline nounwind uwtable
define linkonce_odr dso_local void @_ZNSt12_Vector_baseIiSaIiEED2Ev(%"struct.std::_Vector_base"* %this) unnamed_addr #5 comdat align 2 personality i8* bitcast (i32 (...)* @__gxx_personality_v0 to i8*) {
entry:
  %this.addr = alloca %"struct.std::_Vector_base"*, align 8
  %exn.slot = alloca i8*
  %ehselector.slot = alloca i32
  store %"struct.std::_Vector_base"* %this, %"struct.std::_Vector_base"** %this.addr, align 8
  %this1 = load %"struct.std::_Vector_base"*, %"struct.std::_Vector_base"** %this.addr, align 8
  %_M_impl = getelementptr inbounds %"struct.std::_Vector_base", %"struct.std::_Vector_base"* %this1, i32 0, i32 0
  %0 = bitcast %"struct.std::_Vector_base<int, std::allocator<int> >::_Vector_impl"* %_M_impl to %"struct.std::_Vector_base<int, std::allocator<int> >::_Vector_impl_data"*
  %_M_start = getelementptr inbounds %"struct.std::_Vector_base<int, std::allocator<int> >::_Vector_impl_data", %"struct.std::_Vector_base<int, std::allocator<int> >::_Vector_impl_data"* %0, i32 0, i32 0
  %1 = load i32*, i32** %_M_start, align 8
  %_M_impl2 = getelementptr inbounds %"struct.std::_Vector_base", %"struct.std::_Vector_base"* %this1, i32 0, i32 0
  %2 = bitcast %"struct.std::_Vector_base<int, std::allocator<int> >::_Vector_impl"* %_M_impl2 to %"struct.std::_Vector_base<int, std::allocator<int> >::_Vector_impl_data"*
  %_M_end_of_storage = getelementptr inbounds %"struct.std::_Vector_base<int, std::allocator<int> >::_Vector_impl_data", %"struct.std::_Vector_base<int, std::allocator<int> >::_Vector_impl_data"* %2, i32 0, i32 2
  %3 = load i32*, i32** %_M_end_of_storage, align 8
  %_M_impl3 = getelementptr inbounds %"struct.std::_Vector_base", %"struct.std::_Vector_base"* %this1, i32 0, i32 0
  %4 = bitcast %"struct.std::_Vector_base<int, std::allocator<int> >::_Vector_impl"* %_M_impl3 to %"struct.std::_Vector_base<int, std::allocator<int> >::_Vector_impl_data"*
  %_M_start4 = getelementptr inbounds %"struct.std::_Vector_base<int, std::allocator<int> >::_Vector_impl_data", %"struct.std::_Vector_base<int, std::allocator<int> >::_Vector_impl_data"* %4, i32 0, i32 0
  %5 = load i32*, i32** %_M_start4, align 8
  %sub.ptr.lhs.cast = ptrtoint i32* %3 to i64
  %sub.ptr.rhs.cast = ptrtoint i32* %5 to i64
  %sub.ptr.sub = sub i64 %sub.ptr.lhs.cast, %sub.ptr.rhs.cast
  %sub.ptr.div = sdiv exact i64 %sub.ptr.sub, 4
  invoke void @_ZNSt12_Vector_baseIiSaIiEE13_M_deallocateEPim(%"struct.std::_Vector_base"* %this1, i32* %1, i64 %sub.ptr.div)
          to label %invoke.cont unwind label %lpad

invoke.cont:                                      ; preds = %entry
  %_M_impl5 = getelementptr inbounds %"struct.std::_Vector_base", %"struct.std::_Vector_base"* %this1, i32 0, i32 0
  call void @_ZNSt12_Vector_baseIiSaIiEE12_Vector_implD2Ev(%"struct.std::_Vector_base<int, std::allocator<int> >::_Vector_impl"* %_M_impl5) #3
  ret void

lpad:                                             ; preds = %entry
  %6 = landingpad { i8*, i32 }
          catch i8* null
  %7 = extractvalue { i8*, i32 } %6, 0
  store i8* %7, i8** %exn.slot, align 8
  %8 = extractvalue { i8*, i32 } %6, 1
  store i32 %8, i32* %ehselector.slot, align 4
  %_M_impl6 = getelementptr inbounds %"struct.std::_Vector_base", %"struct.std::_Vector_base"* %this1, i32 0, i32 0
  call void @_ZNSt12_Vector_baseIiSaIiEE12_Vector_implD2Ev(%"struct.std::_Vector_base<int, std::allocator<int> >::_Vector_impl"* %_M_impl6) #3
  br label %terminate.handler

terminate.handler:                                ; preds = %lpad
  %exn = load i8*, i8** %exn.slot, align 8
  call void @__clang_call_terminate(i8* %exn) #12
  unreachable
}

; Function Attrs: noinline noreturn nounwind
define linkonce_odr hidden void @__clang_call_terminate(i8*) #8 comdat {
  %2 = call i8* @__cxa_begin_catch(i8* %0) #3
  call void @_ZSt9terminatev() #12
  unreachable
}

declare dso_local i8* @__cxa_begin_catch(i8*)

declare dso_local void @_ZSt9terminatev()

; Function Attrs: noinline uwtable
define linkonce_odr dso_local void @_ZSt8_DestroyIPiEvT_S1_(i32* %__first, i32* %__last) #0 comdat {
entry:
  %__first.addr = alloca i32*, align 8
  %__last.addr = alloca i32*, align 8
  store i32* %__first, i32** %__first.addr, align 8
  store i32* %__last, i32** %__last.addr, align 8
  %0 = load i32*, i32** %__first.addr, align 8
  %1 = load i32*, i32** %__last.addr, align 8
  call void @_ZNSt12_Destroy_auxILb1EE9__destroyIPiEEvT_S3_(i32* %0, i32* %1)
  ret void
}

; Function Attrs: noinline nounwind uwtable
define linkonce_odr dso_local void @_ZNSt12_Destroy_auxILb1EE9__destroyIPiEEvT_S3_(i32*, i32*) #5 comdat align 2 {
entry:
  %.addr = alloca i32*, align 8
  %.addr1 = alloca i32*, align 8
  store i32* %0, i32** %.addr, align 8
  store i32* %1, i32** %.addr1, align 8
  ret void
}

; Function Attrs: noinline uwtable
define linkonce_odr dso_local void @_ZNSt12_Vector_baseIiSaIiEE13_M_deallocateEPim(%"struct.std::_Vector_base"* %this, i32* %__p, i64 %__n) #0 comdat align 2 {
entry:
  %this.addr = alloca %"struct.std::_Vector_base"*, align 8
  %__p.addr = alloca i32*, align 8
  %__n.addr = alloca i64, align 8
  store %"struct.std::_Vector_base"* %this, %"struct.std::_Vector_base"** %this.addr, align 8
  store i32* %__p, i32** %__p.addr, align 8
  store i64 %__n, i64* %__n.addr, align 8
  %this1 = load %"struct.std::_Vector_base"*, %"struct.std::_Vector_base"** %this.addr, align 8
  %0 = load i32*, i32** %__p.addr, align 8
  %tobool = icmp ne i32* %0, null
  br i1 %tobool, label %if.then, label %if.end

if.then:                                          ; preds = %entry
  %_M_impl = getelementptr inbounds %"struct.std::_Vector_base", %"struct.std::_Vector_base"* %this1, i32 0, i32 0
  %1 = bitcast %"struct.std::_Vector_base<int, std::allocator<int> >::_Vector_impl"* %_M_impl to %"class.std::allocator"*
  %2 = load i32*, i32** %__p.addr, align 8
  %3 = load i64, i64* %__n.addr, align 8
  call void @_ZNSt16allocator_traitsISaIiEE10deallocateERS0_Pim(%"class.std::allocator"* dereferenceable(1) %1, i32* %2, i64 %3)
  br label %if.end

if.end:                                           ; preds = %if.then, %entry
  ret void
}

; Function Attrs: noinline nounwind uwtable
define linkonce_odr dso_local void @_ZNSt12_Vector_baseIiSaIiEE12_Vector_implD2Ev(%"struct.std::_Vector_base<int, std::allocator<int> >::_Vector_impl"* %this) unnamed_addr #5 comdat align 2 {
entry:
  %this.addr = alloca %"struct.std::_Vector_base<int, std::allocator<int> >::_Vector_impl"*, align 8
  store %"struct.std::_Vector_base<int, std::allocator<int> >::_Vector_impl"* %this, %"struct.std::_Vector_base<int, std::allocator<int> >::_Vector_impl"** %this.addr, align 8
  %this1 = load %"struct.std::_Vector_base<int, std::allocator<int> >::_Vector_impl"*, %"struct.std::_Vector_base<int, std::allocator<int> >::_Vector_impl"** %this.addr, align 8
  %0 = bitcast %"struct.std::_Vector_base<int, std::allocator<int> >::_Vector_impl"* %this1 to %"class.std::allocator"*
  call void @_ZNSaIiED2Ev(%"class.std::allocator"* %0) #3
  ret void
}

; Function Attrs: noinline uwtable
define linkonce_odr dso_local void @_ZNSt16allocator_traitsISaIiEE10deallocateERS0_Pim(%"class.std::allocator"* dereferenceable(1) %__a, i32* %__p, i64 %__n) #0 comdat align 2 {
entry:
  %__a.addr = alloca %"class.std::allocator"*, align 8
  %__p.addr = alloca i32*, align 8
  %__n.addr = alloca i64, align 8
  store %"class.std::allocator"* %__a, %"class.std::allocator"** %__a.addr, align 8
  store i32* %__p, i32** %__p.addr, align 8
  store i64 %__n, i64* %__n.addr, align 8
  %0 = load %"class.std::allocator"*, %"class.std::allocator"** %__a.addr, align 8
  %1 = bitcast %"class.std::allocator"* %0 to %"class.__gnu_cxx::new_allocator"*
  %2 = load i32*, i32** %__p.addr, align 8
  %3 = load i64, i64* %__n.addr, align 8
  call void @_ZN9__gnu_cxx13new_allocatorIiE10deallocateEPim(%"class.__gnu_cxx::new_allocator"* %1, i32* %2, i64 %3)
  ret void
}

; Function Attrs: noinline nounwind uwtable
define linkonce_odr dso_local void @_ZN9__gnu_cxx13new_allocatorIiE10deallocateEPim(%"class.__gnu_cxx::new_allocator"* %this, i32* %__p, i64 %__t) #5 comdat align 2 {
entry:
  %this.addr = alloca %"class.__gnu_cxx::new_allocator"*, align 8
  %__p.addr = alloca i32*, align 8
  %__t.addr = alloca i64, align 8
  store %"class.__gnu_cxx::new_allocator"* %this, %"class.__gnu_cxx::new_allocator"** %this.addr, align 8
  store i32* %__p, i32** %__p.addr, align 8
  store i64 %__t, i64* %__t.addr, align 8
  %this1 = load %"class.__gnu_cxx::new_allocator"*, %"class.__gnu_cxx::new_allocator"** %this.addr, align 8
  %0 = load i32*, i32** %__p.addr, align 8
  %1 = bitcast i32* %0 to i8*
  call void @_ZdlPv(i8* %1) #3
  ret void
}

; Function Attrs: nobuiltin nounwind
declare dso_local void @_ZdlPv(i8*) #9

; Function Attrs: noinline nounwind uwtable
define linkonce_odr dso_local void @_ZNSaIiED2Ev(%"class.std::allocator"* %this) unnamed_addr #5 comdat align 2 {
entry:
  %this.addr = alloca %"class.std::allocator"*, align 8
  store %"class.std::allocator"* %this, %"class.std::allocator"** %this.addr, align 8
  %this1 = load %"class.std::allocator"*, %"class.std::allocator"** %this.addr, align 8
  %0 = bitcast %"class.std::allocator"* %this1 to %"class.__gnu_cxx::new_allocator"*
  call void @_ZN9__gnu_cxx13new_allocatorIiED2Ev(%"class.__gnu_cxx::new_allocator"* %0) #3
  ret void
}

; Function Attrs: noinline nounwind uwtable
define linkonce_odr dso_local void @_ZN9__gnu_cxx13new_allocatorIiED2Ev(%"class.__gnu_cxx::new_allocator"* %this) unnamed_addr #5 comdat align 2 {
entry:
  %this.addr = alloca %"class.__gnu_cxx::new_allocator"*, align 8
  store %"class.__gnu_cxx::new_allocator"* %this, %"class.__gnu_cxx::new_allocator"** %this.addr, align 8
  %this1 = load %"class.__gnu_cxx::new_allocator"*, %"class.__gnu_cxx::new_allocator"** %this.addr, align 8
  ret void
}

; Function Attrs: noinline nounwind uwtable
define linkonce_odr dso_local dereferenceable(24) %"class.std::vector"* @_ZSt4moveIRSt6vectorIiSaIiEEEONSt16remove_referenceIT_E4typeEOS5_(%"class.std::vector"* dereferenceable(24) %__t) #5 comdat {
entry:
  %__t.addr = alloca %"class.std::vector"*, align 8
  store %"class.std::vector"* %__t, %"class.std::vector"** %__t.addr, align 8
  %0 = load %"class.std::vector"*, %"class.std::vector"** %__t.addr, align 8
  ret %"class.std::vector"* %0
}

; Function Attrs: noinline nounwind uwtable
define linkonce_odr dso_local void @_ZNSt6vectorIiSaIiEEC2EOS1_(%"class.std::vector"* %this, %"class.std::vector"* dereferenceable(24)) unnamed_addr #5 comdat align 2 {
entry:
  %this.addr = alloca %"class.std::vector"*, align 8
  %.addr = alloca %"class.std::vector"*, align 8
  store %"class.std::vector"* %this, %"class.std::vector"** %this.addr, align 8
  store %"class.std::vector"* %0, %"class.std::vector"** %.addr, align 8
  %this1 = load %"class.std::vector"*, %"class.std::vector"** %this.addr, align 8
  %1 = bitcast %"class.std::vector"* %this1 to %"struct.std::_Vector_base"*
  %2 = load %"class.std::vector"*, %"class.std::vector"** %.addr, align 8
  %3 = bitcast %"class.std::vector"* %2 to %"struct.std::_Vector_base"*
  call void @_ZNSt12_Vector_baseIiSaIiEEC2EOS1_(%"struct.std::_Vector_base"* %1, %"struct.std::_Vector_base"* dereferenceable(24) %3) #3
  ret void
}

; Function Attrs: noinline uwtable
define linkonce_odr dso_local i32* @_ZNSt6vectorIiSaIiEE6insertIPivEEN9__gnu_cxx17__normal_iteratorIS3_S1_EENS5_IPKiS1_EET_SA_(%"class.std::vector"* %this, i32* %__position.coerce, i32* %__first, i32* %__last) #0 comdat align 2 {
entry:
  %retval = alloca %"class.__gnu_cxx::__normal_iterator", align 8
  %__position = alloca %"class.__gnu_cxx::__normal_iterator.0", align 8
  %this.addr = alloca %"class.std::vector"*, align 8
  %__first.addr = alloca i32*, align 8
  %__last.addr = alloca i32*, align 8
  %__offset = alloca i64, align 8
  %ref.tmp = alloca %"class.__gnu_cxx::__normal_iterator.0", align 8
  %agg.tmp = alloca %"class.__gnu_cxx::__normal_iterator", align 8
  %ref.tmp4 = alloca %"class.__gnu_cxx::__normal_iterator", align 8
  %agg.tmp9 = alloca %"struct.std::__false_type", align 1
  %ref.tmp11 = alloca %"class.__gnu_cxx::__normal_iterator", align 8
  %coerce.dive = getelementptr inbounds %"class.__gnu_cxx::__normal_iterator.0", %"class.__gnu_cxx::__normal_iterator.0"* %__position, i32 0, i32 0
  store i32* %__position.coerce, i32** %coerce.dive, align 8
  store %"class.std::vector"* %this, %"class.std::vector"** %this.addr, align 8
  store i32* %__first, i32** %__first.addr, align 8
  store i32* %__last, i32** %__last.addr, align 8
  %this1 = load %"class.std::vector"*, %"class.std::vector"** %this.addr, align 8
  %call = call i32* @_ZNKSt6vectorIiSaIiEE6cbeginEv(%"class.std::vector"* %this1) #3
  %coerce.dive2 = getelementptr inbounds %"class.__gnu_cxx::__normal_iterator.0", %"class.__gnu_cxx::__normal_iterator.0"* %ref.tmp, i32 0, i32 0
  store i32* %call, i32** %coerce.dive2, align 8
  %call3 = call i64 @_ZN9__gnu_cxxmiIPKiSt6vectorIiSaIiEEEENS_17__normal_iteratorIT_T0_E15difference_typeERKS9_SC_(%"class.__gnu_cxx::__normal_iterator.0"* dereferenceable(8) %__position, %"class.__gnu_cxx::__normal_iterator.0"* dereferenceable(8) %ref.tmp) #3
  store i64 %call3, i64* %__offset, align 8
  %call5 = call i32* @_ZNSt6vectorIiSaIiEE5beginEv(%"class.std::vector"* %this1) #3
  %coerce.dive6 = getelementptr inbounds %"class.__gnu_cxx::__normal_iterator", %"class.__gnu_cxx::__normal_iterator"* %ref.tmp4, i32 0, i32 0
  store i32* %call5, i32** %coerce.dive6, align 8
  %0 = load i64, i64* %__offset, align 8
  %call7 = call i32* @_ZNK9__gnu_cxx17__normal_iteratorIPiSt6vectorIiSaIiEEEplEl(%"class.__gnu_cxx::__normal_iterator"* %ref.tmp4, i64 %0) #3
  %coerce.dive8 = getelementptr inbounds %"class.__gnu_cxx::__normal_iterator", %"class.__gnu_cxx::__normal_iterator"* %agg.tmp, i32 0, i32 0
  store i32* %call7, i32** %coerce.dive8, align 8
  %1 = load i32*, i32** %__first.addr, align 8
  %2 = load i32*, i32** %__last.addr, align 8
  %coerce.dive10 = getelementptr inbounds %"class.__gnu_cxx::__normal_iterator", %"class.__gnu_cxx::__normal_iterator"* %agg.tmp, i32 0, i32 0
  %3 = load i32*, i32** %coerce.dive10, align 8
  call void @_ZNSt6vectorIiSaIiEE18_M_insert_dispatchIPiEEvN9__gnu_cxx17__normal_iteratorIS3_S1_EET_S7_St12__false_type(%"class.std::vector"* %this1, i32* %3, i32* %1, i32* %2)
  %call12 = call i32* @_ZNSt6vectorIiSaIiEE5beginEv(%"class.std::vector"* %this1) #3
  %coerce.dive13 = getelementptr inbounds %"class.__gnu_cxx::__normal_iterator", %"class.__gnu_cxx::__normal_iterator"* %ref.tmp11, i32 0, i32 0
  store i32* %call12, i32** %coerce.dive13, align 8
  %4 = load i64, i64* %__offset, align 8
  %call14 = call i32* @_ZNK9__gnu_cxx17__normal_iteratorIPiSt6vectorIiSaIiEEEplEl(%"class.__gnu_cxx::__normal_iterator"* %ref.tmp11, i64 %4) #3
  %coerce.dive15 = getelementptr inbounds %"class.__gnu_cxx::__normal_iterator", %"class.__gnu_cxx::__normal_iterator"* %retval, i32 0, i32 0
  store i32* %call14, i32** %coerce.dive15, align 8
  %coerce.dive16 = getelementptr inbounds %"class.__gnu_cxx::__normal_iterator", %"class.__gnu_cxx::__normal_iterator"* %retval, i32 0, i32 0
  %5 = load i32*, i32** %coerce.dive16, align 8
  ret i32* %5
}

; Function Attrs: noinline nounwind uwtable
define linkonce_odr dso_local i32* @_ZNSt6vectorIiSaIiEE3endEv(%"class.std::vector"* %this) #5 comdat align 2 {
entry:
  %retval = alloca %"class.__gnu_cxx::__normal_iterator", align 8
  %this.addr = alloca %"class.std::vector"*, align 8
  store %"class.std::vector"* %this, %"class.std::vector"** %this.addr, align 8
  %this1 = load %"class.std::vector"*, %"class.std::vector"** %this.addr, align 8
  %0 = bitcast %"class.std::vector"* %this1 to %"struct.std::_Vector_base"*
  %_M_impl = getelementptr inbounds %"struct.std::_Vector_base", %"struct.std::_Vector_base"* %0, i32 0, i32 0
  %1 = bitcast %"struct.std::_Vector_base<int, std::allocator<int> >::_Vector_impl"* %_M_impl to %"struct.std::_Vector_base<int, std::allocator<int> >::_Vector_impl_data"*
  %_M_finish = getelementptr inbounds %"struct.std::_Vector_base<int, std::allocator<int> >::_Vector_impl_data", %"struct.std::_Vector_base<int, std::allocator<int> >::_Vector_impl_data"* %1, i32 0, i32 1
  call void @_ZN9__gnu_cxx17__normal_iteratorIPiSt6vectorIiSaIiEEEC2ERKS1_(%"class.__gnu_cxx::__normal_iterator"* %retval, i32** dereferenceable(8) %_M_finish) #3
  %coerce.dive = getelementptr inbounds %"class.__gnu_cxx::__normal_iterator", %"class.__gnu_cxx::__normal_iterator"* %retval, i32 0, i32 0
  %2 = load i32*, i32** %coerce.dive, align 8
  ret i32* %2
}

; Function Attrs: noinline nounwind uwtable
define linkonce_odr dso_local void @_ZN9__gnu_cxx17__normal_iteratorIPKiSt6vectorIiSaIiEEEC2IPiEERKNS0_IT_NS_11__enable_ifIXsr3std10__are_sameIS9_S8_EE7__valueES5_E6__typeEEE(%"class.__gnu_cxx::__normal_iterator.0"* %this, %"class.__gnu_cxx::__normal_iterator"* dereferenceable(8) %__i) unnamed_addr #5 comdat align 2 {
entry:
  %this.addr = alloca %"class.__gnu_cxx::__normal_iterator.0"*, align 8
  %__i.addr = alloca %"class.__gnu_cxx::__normal_iterator"*, align 8
  store %"class.__gnu_cxx::__normal_iterator.0"* %this, %"class.__gnu_cxx::__normal_iterator.0"** %this.addr, align 8
  store %"class.__gnu_cxx::__normal_iterator"* %__i, %"class.__gnu_cxx::__normal_iterator"** %__i.addr, align 8
  %this1 = load %"class.__gnu_cxx::__normal_iterator.0"*, %"class.__gnu_cxx::__normal_iterator.0"** %this.addr, align 8
  %_M_current = getelementptr inbounds %"class.__gnu_cxx::__normal_iterator.0", %"class.__gnu_cxx::__normal_iterator.0"* %this1, i32 0, i32 0
  %0 = load %"class.__gnu_cxx::__normal_iterator"*, %"class.__gnu_cxx::__normal_iterator"** %__i.addr, align 8
  %call = call dereferenceable(8) i32** @_ZNK9__gnu_cxx17__normal_iteratorIPiSt6vectorIiSaIiEEE4baseEv(%"class.__gnu_cxx::__normal_iterator"* %0) #3
  %1 = load i32*, i32** %call, align 8
  store i32* %1, i32** %_M_current, align 8
  ret void
}

; Function Attrs: noinline uwtable
define linkonce_odr dso_local void @_ZSt9make_heapIN9__gnu_cxx17__normal_iteratorIPiSt6vectorIiSaIiEEEESt7greaterIiEEvT_S9_T0_(i32* %__first.coerce, i32* %__last.coerce) #0 comdat {
entry:
  %__first = alloca %"class.__gnu_cxx::__normal_iterator", align 8
  %__last = alloca %"class.__gnu_cxx::__normal_iterator", align 8
  %__comp = alloca %"struct.std::greater", align 1
  %__cmp = alloca %"struct.__gnu_cxx::__ops::_Iter_comp_iter", align 1
  %agg.tmp = alloca %"struct.std::greater", align 1
  %agg.tmp2 = alloca %"class.__gnu_cxx::__normal_iterator", align 8
  %agg.tmp3 = alloca %"class.__gnu_cxx::__normal_iterator", align 8
  %coerce.dive = getelementptr inbounds %"class.__gnu_cxx::__normal_iterator", %"class.__gnu_cxx::__normal_iterator"* %__first, i32 0, i32 0
  store i32* %__first.coerce, i32** %coerce.dive, align 8
  %coerce.dive1 = getelementptr inbounds %"class.__gnu_cxx::__normal_iterator", %"class.__gnu_cxx::__normal_iterator"* %__last, i32 0, i32 0
  store i32* %__last.coerce, i32** %coerce.dive1, align 8
  %call = call dereferenceable(1) %"struct.std::greater"* @_ZSt4moveIRSt7greaterIiEEONSt16remove_referenceIT_E4typeEOS4_(%"struct.std::greater"* dereferenceable(1) %__comp) #3
  call void @_ZN9__gnu_cxx5__ops15_Iter_comp_iterISt7greaterIiEEC2ES3_(%"struct.__gnu_cxx::__ops::_Iter_comp_iter"* %__cmp)
  %0 = bitcast %"class.__gnu_cxx::__normal_iterator"* %agg.tmp2 to i8*
  %1 = bitcast %"class.__gnu_cxx::__normal_iterator"* %__first to i8*
  call void @llvm.memcpy.p0i8.p0i8.i64(i8* align 8 %0, i8* align 8 %1, i64 8, i1 false)
  %2 = bitcast %"class.__gnu_cxx::__normal_iterator"* %agg.tmp3 to i8*
  %3 = bitcast %"class.__gnu_cxx::__normal_iterator"* %__last to i8*
  call void @llvm.memcpy.p0i8.p0i8.i64(i8* align 8 %2, i8* align 8 %3, i64 8, i1 false)
  %coerce.dive4 = getelementptr inbounds %"class.__gnu_cxx::__normal_iterator", %"class.__gnu_cxx::__normal_iterator"* %agg.tmp2, i32 0, i32 0
  %4 = load i32*, i32** %coerce.dive4, align 8
  %coerce.dive5 = getelementptr inbounds %"class.__gnu_cxx::__normal_iterator", %"class.__gnu_cxx::__normal_iterator"* %agg.tmp3, i32 0, i32 0
  %5 = load i32*, i32** %coerce.dive5, align 8
  call void @_ZSt11__make_heapIN9__gnu_cxx17__normal_iteratorIPiSt6vectorIiSaIiEEEENS0_5__ops15_Iter_comp_iterISt7greaterIiEEEEvT_SC_RT0_(i32* %4, i32* %5, %"struct.__gnu_cxx::__ops::_Iter_comp_iter"* dereferenceable(1) %__cmp)
  ret void
}

; Function Attrs: noinline nounwind uwtable
define linkonce_odr dso_local i32* @_ZNSt6vectorIiSaIiEE5beginEv(%"class.std::vector"* %this) #5 comdat align 2 {
entry:
  %retval = alloca %"class.__gnu_cxx::__normal_iterator", align 8
  %this.addr = alloca %"class.std::vector"*, align 8
  store %"class.std::vector"* %this, %"class.std::vector"** %this.addr, align 8
  %this1 = load %"class.std::vector"*, %"class.std::vector"** %this.addr, align 8
  %0 = bitcast %"class.std::vector"* %this1 to %"struct.std::_Vector_base"*
  %_M_impl = getelementptr inbounds %"struct.std::_Vector_base", %"struct.std::_Vector_base"* %0, i32 0, i32 0
  %1 = bitcast %"struct.std::_Vector_base<int, std::allocator<int> >::_Vector_impl"* %_M_impl to %"struct.std::_Vector_base<int, std::allocator<int> >::_Vector_impl_data"*
  %_M_start = getelementptr inbounds %"struct.std::_Vector_base<int, std::allocator<int> >::_Vector_impl_data", %"struct.std::_Vector_base<int, std::allocator<int> >::_Vector_impl_data"* %1, i32 0, i32 0
  call void @_ZN9__gnu_cxx17__normal_iteratorIPiSt6vectorIiSaIiEEEC2ERKS1_(%"class.__gnu_cxx::__normal_iterator"* %retval, i32** dereferenceable(8) %_M_start) #3
  %coerce.dive = getelementptr inbounds %"class.__gnu_cxx::__normal_iterator", %"class.__gnu_cxx::__normal_iterator"* %retval, i32 0, i32 0
  %2 = load i32*, i32** %coerce.dive, align 8
  ret i32* %2
}

; Function Attrs: noinline nounwind uwtable
define linkonce_odr dso_local void @_ZNSt12_Vector_baseIiSaIiEEC2EOS1_(%"struct.std::_Vector_base"* %this, %"struct.std::_Vector_base"* dereferenceable(24)) unnamed_addr #5 comdat align 2 {
entry:
  %this.addr = alloca %"struct.std::_Vector_base"*, align 8
  %.addr = alloca %"struct.std::_Vector_base"*, align 8
  store %"struct.std::_Vector_base"* %this, %"struct.std::_Vector_base"** %this.addr, align 8
  store %"struct.std::_Vector_base"* %0, %"struct.std::_Vector_base"** %.addr, align 8
  %this1 = load %"struct.std::_Vector_base"*, %"struct.std::_Vector_base"** %this.addr, align 8
  %_M_impl = getelementptr inbounds %"struct.std::_Vector_base", %"struct.std::_Vector_base"* %this1, i32 0, i32 0
  %1 = load %"struct.std::_Vector_base"*, %"struct.std::_Vector_base"** %.addr, align 8
  %_M_impl2 = getelementptr inbounds %"struct.std::_Vector_base", %"struct.std::_Vector_base"* %1, i32 0, i32 0
  call void @_ZNSt12_Vector_baseIiSaIiEE12_Vector_implC2EOS2_(%"struct.std::_Vector_base<int, std::allocator<int> >::_Vector_impl"* %_M_impl, %"struct.std::_Vector_base<int, std::allocator<int> >::_Vector_impl"* dereferenceable(24) %_M_impl2) #3
  ret void
}

; Function Attrs: noinline nounwind uwtable
define linkonce_odr dso_local void @_ZNSt12_Vector_baseIiSaIiEE12_Vector_implC2EOS2_(%"struct.std::_Vector_base<int, std::allocator<int> >::_Vector_impl"* %this, %"struct.std::_Vector_base<int, std::allocator<int> >::_Vector_impl"* dereferenceable(24) %__x) unnamed_addr #5 comdat align 2 {
entry:
  %this.addr = alloca %"struct.std::_Vector_base<int, std::allocator<int> >::_Vector_impl"*, align 8
  %__x.addr = alloca %"struct.std::_Vector_base<int, std::allocator<int> >::_Vector_impl"*, align 8
  store %"struct.std::_Vector_base<int, std::allocator<int> >::_Vector_impl"* %this, %"struct.std::_Vector_base<int, std::allocator<int> >::_Vector_impl"** %this.addr, align 8
  store %"struct.std::_Vector_base<int, std::allocator<int> >::_Vector_impl"* %__x, %"struct.std::_Vector_base<int, std::allocator<int> >::_Vector_impl"** %__x.addr, align 8
  %this1 = load %"struct.std::_Vector_base<int, std::allocator<int> >::_Vector_impl"*, %"struct.std::_Vector_base<int, std::allocator<int> >::_Vector_impl"** %this.addr, align 8
  %0 = bitcast %"struct.std::_Vector_base<int, std::allocator<int> >::_Vector_impl"* %this1 to %"class.std::allocator"*
  %1 = load %"struct.std::_Vector_base<int, std::allocator<int> >::_Vector_impl"*, %"struct.std::_Vector_base<int, std::allocator<int> >::_Vector_impl"** %__x.addr, align 8
  %call = call dereferenceable(24) %"struct.std::_Vector_base<int, std::allocator<int> >::_Vector_impl"* @_ZSt4moveIRNSt12_Vector_baseIiSaIiEE12_Vector_implEEONSt16remove_referenceIT_E4typeEOS6_(%"struct.std::_Vector_base<int, std::allocator<int> >::_Vector_impl"* dereferenceable(24) %1) #3
  %2 = bitcast %"struct.std::_Vector_base<int, std::allocator<int> >::_Vector_impl"* %call to %"class.std::allocator"*
  call void @_ZNSaIiEC2ERKS_(%"class.std::allocator"* %0, %"class.std::allocator"* dereferenceable(1) %2) #3
  %3 = bitcast %"struct.std::_Vector_base<int, std::allocator<int> >::_Vector_impl"* %this1 to %"struct.std::_Vector_base<int, std::allocator<int> >::_Vector_impl_data"*
  %4 = load %"struct.std::_Vector_base<int, std::allocator<int> >::_Vector_impl"*, %"struct.std::_Vector_base<int, std::allocator<int> >::_Vector_impl"** %__x.addr, align 8
  %call2 = call dereferenceable(24) %"struct.std::_Vector_base<int, std::allocator<int> >::_Vector_impl"* @_ZSt4moveIRNSt12_Vector_baseIiSaIiEE12_Vector_implEEONSt16remove_referenceIT_E4typeEOS6_(%"struct.std::_Vector_base<int, std::allocator<int> >::_Vector_impl"* dereferenceable(24) %4) #3
  %5 = bitcast %"struct.std::_Vector_base<int, std::allocator<int> >::_Vector_impl"* %call2 to %"struct.std::_Vector_base<int, std::allocator<int> >::_Vector_impl_data"*
  call void @_ZNSt12_Vector_baseIiSaIiEE17_Vector_impl_dataC2EOS2_(%"struct.std::_Vector_base<int, std::allocator<int> >::_Vector_impl_data"* %3, %"struct.std::_Vector_base<int, std::allocator<int> >::_Vector_impl_data"* dereferenceable(24) %5) #3
  ret void
}

; Function Attrs: noinline nounwind uwtable
define linkonce_odr dso_local dereferenceable(24) %"struct.std::_Vector_base<int, std::allocator<int> >::_Vector_impl"* @_ZSt4moveIRNSt12_Vector_baseIiSaIiEE12_Vector_implEEONSt16remove_referenceIT_E4typeEOS6_(%"struct.std::_Vector_base<int, std::allocator<int> >::_Vector_impl"* dereferenceable(24) %__t) #5 comdat {
entry:
  %__t.addr = alloca %"struct.std::_Vector_base<int, std::allocator<int> >::_Vector_impl"*, align 8
  store %"struct.std::_Vector_base<int, std::allocator<int> >::_Vector_impl"* %__t, %"struct.std::_Vector_base<int, std::allocator<int> >::_Vector_impl"** %__t.addr, align 8
  %0 = load %"struct.std::_Vector_base<int, std::allocator<int> >::_Vector_impl"*, %"struct.std::_Vector_base<int, std::allocator<int> >::_Vector_impl"** %__t.addr, align 8
  ret %"struct.std::_Vector_base<int, std::allocator<int> >::_Vector_impl"* %0
}

; Function Attrs: noinline nounwind uwtable
define linkonce_odr dso_local void @_ZNSaIiEC2ERKS_(%"class.std::allocator"* %this, %"class.std::allocator"* dereferenceable(1) %__a) unnamed_addr #5 comdat align 2 {
entry:
  %this.addr = alloca %"class.std::allocator"*, align 8
  %__a.addr = alloca %"class.std::allocator"*, align 8
  store %"class.std::allocator"* %this, %"class.std::allocator"** %this.addr, align 8
  store %"class.std::allocator"* %__a, %"class.std::allocator"** %__a.addr, align 8
  %this1 = load %"class.std::allocator"*, %"class.std::allocator"** %this.addr, align 8
  %0 = bitcast %"class.std::allocator"* %this1 to %"class.__gnu_cxx::new_allocator"*
  %1 = load %"class.std::allocator"*, %"class.std::allocator"** %__a.addr, align 8
  %2 = bitcast %"class.std::allocator"* %1 to %"class.__gnu_cxx::new_allocator"*
  call void @_ZN9__gnu_cxx13new_allocatorIiEC2ERKS1_(%"class.__gnu_cxx::new_allocator"* %0, %"class.__gnu_cxx::new_allocator"* dereferenceable(1) %2) #3
  ret void
}

; Function Attrs: noinline nounwind uwtable
define linkonce_odr dso_local void @_ZNSt12_Vector_baseIiSaIiEE17_Vector_impl_dataC2EOS2_(%"struct.std::_Vector_base<int, std::allocator<int> >::_Vector_impl_data"* %this, %"struct.std::_Vector_base<int, std::allocator<int> >::_Vector_impl_data"* dereferenceable(24) %__x) unnamed_addr #5 comdat align 2 {
entry:
  %this.addr = alloca %"struct.std::_Vector_base<int, std::allocator<int> >::_Vector_impl_data"*, align 8
  %__x.addr = alloca %"struct.std::_Vector_base<int, std::allocator<int> >::_Vector_impl_data"*, align 8
  store %"struct.std::_Vector_base<int, std::allocator<int> >::_Vector_impl_data"* %this, %"struct.std::_Vector_base<int, std::allocator<int> >::_Vector_impl_data"** %this.addr, align 8
  store %"struct.std::_Vector_base<int, std::allocator<int> >::_Vector_impl_data"* %__x, %"struct.std::_Vector_base<int, std::allocator<int> >::_Vector_impl_data"** %__x.addr, align 8
  %this1 = load %"struct.std::_Vector_base<int, std::allocator<int> >::_Vector_impl_data"*, %"struct.std::_Vector_base<int, std::allocator<int> >::_Vector_impl_data"** %this.addr, align 8
  %_M_start = getelementptr inbounds %"struct.std::_Vector_base<int, std::allocator<int> >::_Vector_impl_data", %"struct.std::_Vector_base<int, std::allocator<int> >::_Vector_impl_data"* %this1, i32 0, i32 0
  %0 = load %"struct.std::_Vector_base<int, std::allocator<int> >::_Vector_impl_data"*, %"struct.std::_Vector_base<int, std::allocator<int> >::_Vector_impl_data"** %__x.addr, align 8
  %_M_start2 = getelementptr inbounds %"struct.std::_Vector_base<int, std::allocator<int> >::_Vector_impl_data", %"struct.std::_Vector_base<int, std::allocator<int> >::_Vector_impl_data"* %0, i32 0, i32 0
  %1 = load i32*, i32** %_M_start2, align 8
  store i32* %1, i32** %_M_start, align 8
  %_M_finish = getelementptr inbounds %"struct.std::_Vector_base<int, std::allocator<int> >::_Vector_impl_data", %"struct.std::_Vector_base<int, std::allocator<int> >::_Vector_impl_data"* %this1, i32 0, i32 1
  %2 = load %"struct.std::_Vector_base<int, std::allocator<int> >::_Vector_impl_data"*, %"struct.std::_Vector_base<int, std::allocator<int> >::_Vector_impl_data"** %__x.addr, align 8
  %_M_finish3 = getelementptr inbounds %"struct.std::_Vector_base<int, std::allocator<int> >::_Vector_impl_data", %"struct.std::_Vector_base<int, std::allocator<int> >::_Vector_impl_data"* %2, i32 0, i32 1
  %3 = load i32*, i32** %_M_finish3, align 8
  store i32* %3, i32** %_M_finish, align 8
  %_M_end_of_storage = getelementptr inbounds %"struct.std::_Vector_base<int, std::allocator<int> >::_Vector_impl_data", %"struct.std::_Vector_base<int, std::allocator<int> >::_Vector_impl_data"* %this1, i32 0, i32 2
  %4 = load %"struct.std::_Vector_base<int, std::allocator<int> >::_Vector_impl_data"*, %"struct.std::_Vector_base<int, std::allocator<int> >::_Vector_impl_data"** %__x.addr, align 8
  %_M_end_of_storage4 = getelementptr inbounds %"struct.std::_Vector_base<int, std::allocator<int> >::_Vector_impl_data", %"struct.std::_Vector_base<int, std::allocator<int> >::_Vector_impl_data"* %4, i32 0, i32 2
  %5 = load i32*, i32** %_M_end_of_storage4, align 8
  store i32* %5, i32** %_M_end_of_storage, align 8
  %6 = load %"struct.std::_Vector_base<int, std::allocator<int> >::_Vector_impl_data"*, %"struct.std::_Vector_base<int, std::allocator<int> >::_Vector_impl_data"** %__x.addr, align 8
  %_M_end_of_storage5 = getelementptr inbounds %"struct.std::_Vector_base<int, std::allocator<int> >::_Vector_impl_data", %"struct.std::_Vector_base<int, std::allocator<int> >::_Vector_impl_data"* %6, i32 0, i32 2
  store i32* null, i32** %_M_end_of_storage5, align 8
  %7 = load %"struct.std::_Vector_base<int, std::allocator<int> >::_Vector_impl_data"*, %"struct.std::_Vector_base<int, std::allocator<int> >::_Vector_impl_data"** %__x.addr, align 8
  %_M_finish6 = getelementptr inbounds %"struct.std::_Vector_base<int, std::allocator<int> >::_Vector_impl_data", %"struct.std::_Vector_base<int, std::allocator<int> >::_Vector_impl_data"* %7, i32 0, i32 1
  store i32* null, i32** %_M_finish6, align 8
  %8 = load %"struct.std::_Vector_base<int, std::allocator<int> >::_Vector_impl_data"*, %"struct.std::_Vector_base<int, std::allocator<int> >::_Vector_impl_data"** %__x.addr, align 8
  %_M_start7 = getelementptr inbounds %"struct.std::_Vector_base<int, std::allocator<int> >::_Vector_impl_data", %"struct.std::_Vector_base<int, std::allocator<int> >::_Vector_impl_data"* %8, i32 0, i32 0
  store i32* null, i32** %_M_start7, align 8
  ret void
}

; Function Attrs: noinline nounwind uwtable
define linkonce_odr dso_local void @_ZN9__gnu_cxx13new_allocatorIiEC2ERKS1_(%"class.__gnu_cxx::new_allocator"* %this, %"class.__gnu_cxx::new_allocator"* dereferenceable(1)) unnamed_addr #5 comdat align 2 {
entry:
  %this.addr = alloca %"class.__gnu_cxx::new_allocator"*, align 8
  %.addr = alloca %"class.__gnu_cxx::new_allocator"*, align 8
  store %"class.__gnu_cxx::new_allocator"* %this, %"class.__gnu_cxx::new_allocator"** %this.addr, align 8
  store %"class.__gnu_cxx::new_allocator"* %0, %"class.__gnu_cxx::new_allocator"** %.addr, align 8
  %this1 = load %"class.__gnu_cxx::new_allocator"*, %"class.__gnu_cxx::new_allocator"** %this.addr, align 8
  ret void
}

; Function Attrs: noinline nounwind uwtable
define linkonce_odr dso_local i64 @_ZN9__gnu_cxxmiIPKiSt6vectorIiSaIiEEEENS_17__normal_iteratorIT_T0_E15difference_typeERKS9_SC_(%"class.__gnu_cxx::__normal_iterator.0"* dereferenceable(8) %__lhs, %"class.__gnu_cxx::__normal_iterator.0"* dereferenceable(8) %__rhs) #5 comdat {
entry:
  %__lhs.addr = alloca %"class.__gnu_cxx::__normal_iterator.0"*, align 8
  %__rhs.addr = alloca %"class.__gnu_cxx::__normal_iterator.0"*, align 8
  store %"class.__gnu_cxx::__normal_iterator.0"* %__lhs, %"class.__gnu_cxx::__normal_iterator.0"** %__lhs.addr, align 8
  store %"class.__gnu_cxx::__normal_iterator.0"* %__rhs, %"class.__gnu_cxx::__normal_iterator.0"** %__rhs.addr, align 8
  %0 = load %"class.__gnu_cxx::__normal_iterator.0"*, %"class.__gnu_cxx::__normal_iterator.0"** %__lhs.addr, align 8
  %call = call dereferenceable(8) i32** @_ZNK9__gnu_cxx17__normal_iteratorIPKiSt6vectorIiSaIiEEE4baseEv(%"class.__gnu_cxx::__normal_iterator.0"* %0) #3
  %1 = load i32*, i32** %call, align 8
  %2 = load %"class.__gnu_cxx::__normal_iterator.0"*, %"class.__gnu_cxx::__normal_iterator.0"** %__rhs.addr, align 8
  %call1 = call dereferenceable(8) i32** @_ZNK9__gnu_cxx17__normal_iteratorIPKiSt6vectorIiSaIiEEE4baseEv(%"class.__gnu_cxx::__normal_iterator.0"* %2) #3
  %3 = load i32*, i32** %call1, align 8
  %sub.ptr.lhs.cast = ptrtoint i32* %1 to i64
  %sub.ptr.rhs.cast = ptrtoint i32* %3 to i64
  %sub.ptr.sub = sub i64 %sub.ptr.lhs.cast, %sub.ptr.rhs.cast
  %sub.ptr.div = sdiv exact i64 %sub.ptr.sub, 4
  ret i64 %sub.ptr.div
}

; Function Attrs: noinline nounwind uwtable
define linkonce_odr dso_local i32* @_ZNKSt6vectorIiSaIiEE6cbeginEv(%"class.std::vector"* %this) #5 comdat align 2 {
entry:
  %retval = alloca %"class.__gnu_cxx::__normal_iterator.0", align 8
  %this.addr = alloca %"class.std::vector"*, align 8
  %ref.tmp = alloca i32*, align 8
  store %"class.std::vector"* %this, %"class.std::vector"** %this.addr, align 8
  %this1 = load %"class.std::vector"*, %"class.std::vector"** %this.addr, align 8
  %0 = bitcast %"class.std::vector"* %this1 to %"struct.std::_Vector_base"*
  %_M_impl = getelementptr inbounds %"struct.std::_Vector_base", %"struct.std::_Vector_base"* %0, i32 0, i32 0
  %1 = bitcast %"struct.std::_Vector_base<int, std::allocator<int> >::_Vector_impl"* %_M_impl to %"struct.std::_Vector_base<int, std::allocator<int> >::_Vector_impl_data"*
  %_M_start = getelementptr inbounds %"struct.std::_Vector_base<int, std::allocator<int> >::_Vector_impl_data", %"struct.std::_Vector_base<int, std::allocator<int> >::_Vector_impl_data"* %1, i32 0, i32 0
  %2 = load i32*, i32** %_M_start, align 8
  store i32* %2, i32** %ref.tmp, align 8
  call void @_ZN9__gnu_cxx17__normal_iteratorIPKiSt6vectorIiSaIiEEEC2ERKS2_(%"class.__gnu_cxx::__normal_iterator.0"* %retval, i32** dereferenceable(8) %ref.tmp) #3
  %coerce.dive = getelementptr inbounds %"class.__gnu_cxx::__normal_iterator.0", %"class.__gnu_cxx::__normal_iterator.0"* %retval, i32 0, i32 0
  %3 = load i32*, i32** %coerce.dive, align 8
  ret i32* %3
}

; Function Attrs: noinline uwtable
define linkonce_odr dso_local void @_ZNSt6vectorIiSaIiEE18_M_insert_dispatchIPiEEvN9__gnu_cxx17__normal_iteratorIS3_S1_EET_S7_St12__false_type(%"class.std::vector"* %this, i32* %__pos.coerce, i32* %__first, i32* %__last) #0 comdat align 2 {
entry:
  %__pos = alloca %"class.__gnu_cxx::__normal_iterator", align 8
  %0 = alloca %"struct.std::__false_type", align 1
  %this.addr = alloca %"class.std::vector"*, align 8
  %__first.addr = alloca i32*, align 8
  %__last.addr = alloca i32*, align 8
  %agg.tmp = alloca %"class.__gnu_cxx::__normal_iterator", align 8
  %agg.tmp2 = alloca %"struct.std::forward_iterator_tag", align 1
  %ref.tmp = alloca %"struct.std::random_access_iterator_tag", align 1
  %undef.agg.tmp = alloca %"struct.std::random_access_iterator_tag", align 1
  %coerce.dive = getelementptr inbounds %"class.__gnu_cxx::__normal_iterator", %"class.__gnu_cxx::__normal_iterator"* %__pos, i32 0, i32 0
  store i32* %__pos.coerce, i32** %coerce.dive, align 8
  store %"class.std::vector"* %this, %"class.std::vector"** %this.addr, align 8
  store i32* %__first, i32** %__first.addr, align 8
  store i32* %__last, i32** %__last.addr, align 8
  %this1 = load %"class.std::vector"*, %"class.std::vector"** %this.addr, align 8
  %1 = bitcast %"class.__gnu_cxx::__normal_iterator"* %agg.tmp to i8*
  %2 = bitcast %"class.__gnu_cxx::__normal_iterator"* %__pos to i8*
  call void @llvm.memcpy.p0i8.p0i8.i64(i8* align 8 %1, i8* align 8 %2, i64 8, i1 false)
  %3 = load i32*, i32** %__first.addr, align 8
  %4 = load i32*, i32** %__last.addr, align 8
  call void @_ZSt19__iterator_categoryIPiENSt15iterator_traitsIT_E17iterator_categoryERKS2_(i32** dereferenceable(8) %__first.addr)
  %5 = bitcast %"struct.std::random_access_iterator_tag"* %ref.tmp to %"struct.std::forward_iterator_tag"*
  %coerce.dive3 = getelementptr inbounds %"class.__gnu_cxx::__normal_iterator", %"class.__gnu_cxx::__normal_iterator"* %agg.tmp, i32 0, i32 0
  %6 = load i32*, i32** %coerce.dive3, align 8
  call void @_ZNSt6vectorIiSaIiEE15_M_range_insertIPiEEvN9__gnu_cxx17__normal_iteratorIS3_S1_EET_S7_St20forward_iterator_tag(%"class.std::vector"* %this1, i32* %6, i32* %3, i32* %4)
  ret void
}

; Function Attrs: noinline nounwind uwtable
define linkonce_odr dso_local i32* @_ZNK9__gnu_cxx17__normal_iteratorIPiSt6vectorIiSaIiEEEplEl(%"class.__gnu_cxx::__normal_iterator"* %this, i64 %__n) #5 comdat align 2 {
entry:
  %retval = alloca %"class.__gnu_cxx::__normal_iterator", align 8
  %this.addr = alloca %"class.__gnu_cxx::__normal_iterator"*, align 8
  %__n.addr = alloca i64, align 8
  %ref.tmp = alloca i32*, align 8
  store %"class.__gnu_cxx::__normal_iterator"* %this, %"class.__gnu_cxx::__normal_iterator"** %this.addr, align 8
  store i64 %__n, i64* %__n.addr, align 8
  %this1 = load %"class.__gnu_cxx::__normal_iterator"*, %"class.__gnu_cxx::__normal_iterator"** %this.addr, align 8
  %_M_current = getelementptr inbounds %"class.__gnu_cxx::__normal_iterator", %"class.__gnu_cxx::__normal_iterator"* %this1, i32 0, i32 0
  %0 = load i32*, i32** %_M_current, align 8
  %1 = load i64, i64* %__n.addr, align 8
  %add.ptr = getelementptr inbounds i32, i32* %0, i64 %1
  store i32* %add.ptr, i32** %ref.tmp, align 8
  call void @_ZN9__gnu_cxx17__normal_iteratorIPiSt6vectorIiSaIiEEEC2ERKS1_(%"class.__gnu_cxx::__normal_iterator"* %retval, i32** dereferenceable(8) %ref.tmp) #3
  %coerce.dive = getelementptr inbounds %"class.__gnu_cxx::__normal_iterator", %"class.__gnu_cxx::__normal_iterator"* %retval, i32 0, i32 0
  %2 = load i32*, i32** %coerce.dive, align 8
  ret i32* %2
}

; Function Attrs: noinline nounwind uwtable
define linkonce_odr dso_local dereferenceable(8) i32** @_ZNK9__gnu_cxx17__normal_iteratorIPKiSt6vectorIiSaIiEEE4baseEv(%"class.__gnu_cxx::__normal_iterator.0"* %this) #5 comdat align 2 {
entry:
  %this.addr = alloca %"class.__gnu_cxx::__normal_iterator.0"*, align 8
  store %"class.__gnu_cxx::__normal_iterator.0"* %this, %"class.__gnu_cxx::__normal_iterator.0"** %this.addr, align 8
  %this1 = load %"class.__gnu_cxx::__normal_iterator.0"*, %"class.__gnu_cxx::__normal_iterator.0"** %this.addr, align 8
  %_M_current = getelementptr inbounds %"class.__gnu_cxx::__normal_iterator.0", %"class.__gnu_cxx::__normal_iterator.0"* %this1, i32 0, i32 0
  ret i32** %_M_current
}

; Function Attrs: noinline nounwind uwtable
define linkonce_odr dso_local void @_ZN9__gnu_cxx17__normal_iteratorIPKiSt6vectorIiSaIiEEEC2ERKS2_(%"class.__gnu_cxx::__normal_iterator.0"* %this, i32** dereferenceable(8) %__i) unnamed_addr #5 comdat align 2 {
entry:
  %this.addr = alloca %"class.__gnu_cxx::__normal_iterator.0"*, align 8
  %__i.addr = alloca i32**, align 8
  store %"class.__gnu_cxx::__normal_iterator.0"* %this, %"class.__gnu_cxx::__normal_iterator.0"** %this.addr, align 8
  store i32** %__i, i32*** %__i.addr, align 8
  %this1 = load %"class.__gnu_cxx::__normal_iterator.0"*, %"class.__gnu_cxx::__normal_iterator.0"** %this.addr, align 8
  %_M_current = getelementptr inbounds %"class.__gnu_cxx::__normal_iterator.0", %"class.__gnu_cxx::__normal_iterator.0"* %this1, i32 0, i32 0
  %0 = load i32**, i32*** %__i.addr, align 8
  %1 = load i32*, i32** %0, align 8
  store i32* %1, i32** %_M_current, align 8
  ret void
}

; Function Attrs: noinline uwtable
define linkonce_odr dso_local void @_ZNSt6vectorIiSaIiEE15_M_range_insertIPiEEvN9__gnu_cxx17__normal_iteratorIS3_S1_EET_S7_St20forward_iterator_tag(%"class.std::vector"* %this, i32* %__position.coerce, i32* %__first, i32* %__last) #0 comdat align 2 personality i8* bitcast (i32 (...)* @__gxx_personality_v0 to i8*) {
entry:
  %__position = alloca %"class.__gnu_cxx::__normal_iterator", align 8
  %0 = alloca %"struct.std::forward_iterator_tag", align 1
  %this.addr = alloca %"class.std::vector"*, align 8
  %__first.addr = alloca i32*, align 8
  %__last.addr = alloca i32*, align 8
  %__n = alloca i64, align 8
  %__elems_after = alloca i64, align 8
  %ref.tmp = alloca %"class.__gnu_cxx::__normal_iterator", align 8
  %__old_finish = alloca i32*, align 8
  %agg.tmp = alloca %"class.__gnu_cxx::__normal_iterator", align 8
  %coerce = alloca %"class.__gnu_cxx::__normal_iterator", align 8
  %__mid = alloca i32*, align 8
  %agg.tmp45 = alloca %"class.__gnu_cxx::__normal_iterator", align 8
  %coerce48 = alloca %"class.__gnu_cxx::__normal_iterator", align 8
  %__len = alloca i64, align 8
  %__new_start = alloca i32*, align 8
  %__new_finish = alloca i32*, align 8
  %exn.slot = alloca i8*
  %ehselector.slot = alloca i32
  %coerce.dive = getelementptr inbounds %"class.__gnu_cxx::__normal_iterator", %"class.__gnu_cxx::__normal_iterator"* %__position, i32 0, i32 0
  store i32* %__position.coerce, i32** %coerce.dive, align 8
  store %"class.std::vector"* %this, %"class.std::vector"** %this.addr, align 8
  store i32* %__first, i32** %__first.addr, align 8
  store i32* %__last, i32** %__last.addr, align 8
  %this1 = load %"class.std::vector"*, %"class.std::vector"** %this.addr, align 8
  %1 = load i32*, i32** %__first.addr, align 8
  %2 = load i32*, i32** %__last.addr, align 8
  %cmp = icmp ne i32* %1, %2
  br i1 %cmp, label %if.then, label %if.end94

if.then:                                          ; preds = %entry
  %3 = load i32*, i32** %__first.addr, align 8
  %4 = load i32*, i32** %__last.addr, align 8
  %call = call i64 @_ZSt8distanceIPiENSt15iterator_traitsIT_E15difference_typeES2_S2_(i32* %3, i32* %4)
  store i64 %call, i64* %__n, align 8
  %5 = bitcast %"class.std::vector"* %this1 to %"struct.std::_Vector_base"*
  %_M_impl = getelementptr inbounds %"struct.std::_Vector_base", %"struct.std::_Vector_base"* %5, i32 0, i32 0
  %6 = bitcast %"struct.std::_Vector_base<int, std::allocator<int> >::_Vector_impl"* %_M_impl to %"struct.std::_Vector_base<int, std::allocator<int> >::_Vector_impl_data"*
  %_M_end_of_storage = getelementptr inbounds %"struct.std::_Vector_base<int, std::allocator<int> >::_Vector_impl_data", %"struct.std::_Vector_base<int, std::allocator<int> >::_Vector_impl_data"* %6, i32 0, i32 2
  %7 = load i32*, i32** %_M_end_of_storage, align 8
  %8 = bitcast %"class.std::vector"* %this1 to %"struct.std::_Vector_base"*
  %_M_impl2 = getelementptr inbounds %"struct.std::_Vector_base", %"struct.std::_Vector_base"* %8, i32 0, i32 0
  %9 = bitcast %"struct.std::_Vector_base<int, std::allocator<int> >::_Vector_impl"* %_M_impl2 to %"struct.std::_Vector_base<int, std::allocator<int> >::_Vector_impl_data"*
  %_M_finish = getelementptr inbounds %"struct.std::_Vector_base<int, std::allocator<int> >::_Vector_impl_data", %"struct.std::_Vector_base<int, std::allocator<int> >::_Vector_impl_data"* %9, i32 0, i32 1
  %10 = load i32*, i32** %_M_finish, align 8
  %sub.ptr.lhs.cast = ptrtoint i32* %7 to i64
  %sub.ptr.rhs.cast = ptrtoint i32* %10 to i64
  %sub.ptr.sub = sub i64 %sub.ptr.lhs.cast, %sub.ptr.rhs.cast
  %sub.ptr.div = sdiv exact i64 %sub.ptr.sub, 4
  %11 = load i64, i64* %__n, align 8
  %cmp3 = icmp uge i64 %sub.ptr.div, %11
  br i1 %cmp3, label %if.then4, label %if.else50

if.then4:                                         ; preds = %if.then
  %call5 = call i32* @_ZNSt6vectorIiSaIiEE3endEv(%"class.std::vector"* %this1) #3
  %coerce.dive6 = getelementptr inbounds %"class.__gnu_cxx::__normal_iterator", %"class.__gnu_cxx::__normal_iterator"* %ref.tmp, i32 0, i32 0
  store i32* %call5, i32** %coerce.dive6, align 8
  %call7 = call i64 @_ZN9__gnu_cxxmiIPiSt6vectorIiSaIiEEEENS_17__normal_iteratorIT_T0_E15difference_typeERKS8_SB_(%"class.__gnu_cxx::__normal_iterator"* dereferenceable(8) %ref.tmp, %"class.__gnu_cxx::__normal_iterator"* dereferenceable(8) %__position) #3
  store i64 %call7, i64* %__elems_after, align 8
  %12 = bitcast %"class.std::vector"* %this1 to %"struct.std::_Vector_base"*
  %_M_impl8 = getelementptr inbounds %"struct.std::_Vector_base", %"struct.std::_Vector_base"* %12, i32 0, i32 0
  %13 = bitcast %"struct.std::_Vector_base<int, std::allocator<int> >::_Vector_impl"* %_M_impl8 to %"struct.std::_Vector_base<int, std::allocator<int> >::_Vector_impl_data"*
  %_M_finish9 = getelementptr inbounds %"struct.std::_Vector_base<int, std::allocator<int> >::_Vector_impl_data", %"struct.std::_Vector_base<int, std::allocator<int> >::_Vector_impl_data"* %13, i32 0, i32 1
  %14 = load i32*, i32** %_M_finish9, align 8
  store i32* %14, i32** %__old_finish, align 8
  %15 = load i64, i64* %__elems_after, align 8
  %16 = load i64, i64* %__n, align 8
  %cmp10 = icmp ugt i64 %15, %16
  br i1 %cmp10, label %if.then11, label %if.else

if.then11:                                        ; preds = %if.then4
  %17 = bitcast %"class.std::vector"* %this1 to %"struct.std::_Vector_base"*
  %_M_impl12 = getelementptr inbounds %"struct.std::_Vector_base", %"struct.std::_Vector_base"* %17, i32 0, i32 0
  %18 = bitcast %"struct.std::_Vector_base<int, std::allocator<int> >::_Vector_impl"* %_M_impl12 to %"struct.std::_Vector_base<int, std::allocator<int> >::_Vector_impl_data"*
  %_M_finish13 = getelementptr inbounds %"struct.std::_Vector_base<int, std::allocator<int> >::_Vector_impl_data", %"struct.std::_Vector_base<int, std::allocator<int> >::_Vector_impl_data"* %18, i32 0, i32 1
  %19 = load i32*, i32** %_M_finish13, align 8
  %20 = load i64, i64* %__n, align 8
  %idx.neg = sub i64 0, %20
  %add.ptr = getelementptr inbounds i32, i32* %19, i64 %idx.neg
  %21 = bitcast %"class.std::vector"* %this1 to %"struct.std::_Vector_base"*
  %_M_impl14 = getelementptr inbounds %"struct.std::_Vector_base", %"struct.std::_Vector_base"* %21, i32 0, i32 0
  %22 = bitcast %"struct.std::_Vector_base<int, std::allocator<int> >::_Vector_impl"* %_M_impl14 to %"struct.std::_Vector_base<int, std::allocator<int> >::_Vector_impl_data"*
  %_M_finish15 = getelementptr inbounds %"struct.std::_Vector_base<int, std::allocator<int> >::_Vector_impl_data", %"struct.std::_Vector_base<int, std::allocator<int> >::_Vector_impl_data"* %22, i32 0, i32 1
  %23 = load i32*, i32** %_M_finish15, align 8
  %24 = bitcast %"class.std::vector"* %this1 to %"struct.std::_Vector_base"*
  %_M_impl16 = getelementptr inbounds %"struct.std::_Vector_base", %"struct.std::_Vector_base"* %24, i32 0, i32 0
  %25 = bitcast %"struct.std::_Vector_base<int, std::allocator<int> >::_Vector_impl"* %_M_impl16 to %"struct.std::_Vector_base<int, std::allocator<int> >::_Vector_impl_data"*
  %_M_finish17 = getelementptr inbounds %"struct.std::_Vector_base<int, std::allocator<int> >::_Vector_impl_data", %"struct.std::_Vector_base<int, std::allocator<int> >::_Vector_impl_data"* %25, i32 0, i32 1
  %26 = load i32*, i32** %_M_finish17, align 8
  %27 = bitcast %"class.std::vector"* %this1 to %"struct.std::_Vector_base"*
  %call18 = call dereferenceable(1) %"class.std::allocator"* @_ZNSt12_Vector_baseIiSaIiEE19_M_get_Tp_allocatorEv(%"struct.std::_Vector_base"* %27) #3
  %call19 = call i32* @_ZSt22__uninitialized_move_aIPiS0_SaIiEET0_T_S3_S2_RT1_(i32* %add.ptr, i32* %23, i32* %26, %"class.std::allocator"* dereferenceable(1) %call18)
  %28 = load i64, i64* %__n, align 8
  %29 = bitcast %"class.std::vector"* %this1 to %"struct.std::_Vector_base"*
  %_M_impl20 = getelementptr inbounds %"struct.std::_Vector_base", %"struct.std::_Vector_base"* %29, i32 0, i32 0
  %30 = bitcast %"struct.std::_Vector_base<int, std::allocator<int> >::_Vector_impl"* %_M_impl20 to %"struct.std::_Vector_base<int, std::allocator<int> >::_Vector_impl_data"*
  %_M_finish21 = getelementptr inbounds %"struct.std::_Vector_base<int, std::allocator<int> >::_Vector_impl_data", %"struct.std::_Vector_base<int, std::allocator<int> >::_Vector_impl_data"* %30, i32 0, i32 1
  %31 = load i32*, i32** %_M_finish21, align 8
  %add.ptr22 = getelementptr inbounds i32, i32* %31, i64 %28
  store i32* %add.ptr22, i32** %_M_finish21, align 8
  %call23 = call dereferenceable(8) i32** @_ZNK9__gnu_cxx17__normal_iteratorIPiSt6vectorIiSaIiEEE4baseEv(%"class.__gnu_cxx::__normal_iterator"* %__position) #3
  %32 = load i32*, i32** %call23, align 8
  %33 = load i32*, i32** %__old_finish, align 8
  %34 = load i64, i64* %__n, align 8
  %idx.neg24 = sub i64 0, %34
  %add.ptr25 = getelementptr inbounds i32, i32* %33, i64 %idx.neg24
  %35 = load i32*, i32** %__old_finish, align 8
  %call26 = call i32* @_ZSt13move_backwardIPiS0_ET0_T_S2_S1_(i32* %32, i32* %add.ptr25, i32* %35)
  %36 = load i32*, i32** %__first.addr, align 8
  %37 = load i32*, i32** %__last.addr, align 8
  %38 = bitcast %"class.__gnu_cxx::__normal_iterator"* %agg.tmp to i8*
  %39 = bitcast %"class.__gnu_cxx::__normal_iterator"* %__position to i8*
  call void @llvm.memcpy.p0i8.p0i8.i64(i8* align 8 %38, i8* align 8 %39, i64 8, i1 false)
  %coerce.dive27 = getelementptr inbounds %"class.__gnu_cxx::__normal_iterator", %"class.__gnu_cxx::__normal_iterator"* %agg.tmp, i32 0, i32 0
  %40 = load i32*, i32** %coerce.dive27, align 8
  %call28 = call i32* @_ZSt4copyIPiN9__gnu_cxx17__normal_iteratorIS0_St6vectorIiSaIiEEEEET0_T_S8_S7_(i32* %36, i32* %37, i32* %40)
  %coerce.dive29 = getelementptr inbounds %"class.__gnu_cxx::__normal_iterator", %"class.__gnu_cxx::__normal_iterator"* %coerce, i32 0, i32 0
  store i32* %call28, i32** %coerce.dive29, align 8
  br label %if.end

if.else:                                          ; preds = %if.then4
  %41 = load i32*, i32** %__first.addr, align 8
  store i32* %41, i32** %__mid, align 8
  %42 = load i64, i64* %__elems_after, align 8
  call void @_ZSt7advanceIPimEvRT_T0_(i32** dereferenceable(8) %__mid, i64 %42)
  %43 = load i32*, i32** %__mid, align 8
  %44 = load i32*, i32** %__last.addr, align 8
  %45 = bitcast %"class.std::vector"* %this1 to %"struct.std::_Vector_base"*
  %_M_impl30 = getelementptr inbounds %"struct.std::_Vector_base", %"struct.std::_Vector_base"* %45, i32 0, i32 0
  %46 = bitcast %"struct.std::_Vector_base<int, std::allocator<int> >::_Vector_impl"* %_M_impl30 to %"struct.std::_Vector_base<int, std::allocator<int> >::_Vector_impl_data"*
  %_M_finish31 = getelementptr inbounds %"struct.std::_Vector_base<int, std::allocator<int> >::_Vector_impl_data", %"struct.std::_Vector_base<int, std::allocator<int> >::_Vector_impl_data"* %46, i32 0, i32 1
  %47 = load i32*, i32** %_M_finish31, align 8
  %48 = bitcast %"class.std::vector"* %this1 to %"struct.std::_Vector_base"*
  %call32 = call dereferenceable(1) %"class.std::allocator"* @_ZNSt12_Vector_baseIiSaIiEE19_M_get_Tp_allocatorEv(%"struct.std::_Vector_base"* %48) #3
  %call33 = call i32* @_ZSt22__uninitialized_copy_aIPiS0_iET0_T_S2_S1_RSaIT1_E(i32* %43, i32* %44, i32* %47, %"class.std::allocator"* dereferenceable(1) %call32)
  %49 = load i64, i64* %__n, align 8
  %50 = load i64, i64* %__elems_after, align 8
  %sub = sub i64 %49, %50
  %51 = bitcast %"class.std::vector"* %this1 to %"struct.std::_Vector_base"*
  %_M_impl34 = getelementptr inbounds %"struct.std::_Vector_base", %"struct.std::_Vector_base"* %51, i32 0, i32 0
  %52 = bitcast %"struct.std::_Vector_base<int, std::allocator<int> >::_Vector_impl"* %_M_impl34 to %"struct.std::_Vector_base<int, std::allocator<int> >::_Vector_impl_data"*
  %_M_finish35 = getelementptr inbounds %"struct.std::_Vector_base<int, std::allocator<int> >::_Vector_impl_data", %"struct.std::_Vector_base<int, std::allocator<int> >::_Vector_impl_data"* %52, i32 0, i32 1
  %53 = load i32*, i32** %_M_finish35, align 8
  %add.ptr36 = getelementptr inbounds i32, i32* %53, i64 %sub
  store i32* %add.ptr36, i32** %_M_finish35, align 8
  %call37 = call dereferenceable(8) i32** @_ZNK9__gnu_cxx17__normal_iteratorIPiSt6vectorIiSaIiEEE4baseEv(%"class.__gnu_cxx::__normal_iterator"* %__position) #3
  %54 = load i32*, i32** %call37, align 8
  %55 = load i32*, i32** %__old_finish, align 8
  %56 = bitcast %"class.std::vector"* %this1 to %"struct.std::_Vector_base"*
  %_M_impl38 = getelementptr inbounds %"struct.std::_Vector_base", %"struct.std::_Vector_base"* %56, i32 0, i32 0
  %57 = bitcast %"struct.std::_Vector_base<int, std::allocator<int> >::_Vector_impl"* %_M_impl38 to %"struct.std::_Vector_base<int, std::allocator<int> >::_Vector_impl_data"*
  %_M_finish39 = getelementptr inbounds %"struct.std::_Vector_base<int, std::allocator<int> >::_Vector_impl_data", %"struct.std::_Vector_base<int, std::allocator<int> >::_Vector_impl_data"* %57, i32 0, i32 1
  %58 = load i32*, i32** %_M_finish39, align 8
  %59 = bitcast %"class.std::vector"* %this1 to %"struct.std::_Vector_base"*
  %call40 = call dereferenceable(1) %"class.std::allocator"* @_ZNSt12_Vector_baseIiSaIiEE19_M_get_Tp_allocatorEv(%"struct.std::_Vector_base"* %59) #3
  %call41 = call i32* @_ZSt22__uninitialized_move_aIPiS0_SaIiEET0_T_S3_S2_RT1_(i32* %54, i32* %55, i32* %58, %"class.std::allocator"* dereferenceable(1) %call40)
  %60 = load i64, i64* %__elems_after, align 8
  %61 = bitcast %"class.std::vector"* %this1 to %"struct.std::_Vector_base"*
  %_M_impl42 = getelementptr inbounds %"struct.std::_Vector_base", %"struct.std::_Vector_base"* %61, i32 0, i32 0
  %62 = bitcast %"struct.std::_Vector_base<int, std::allocator<int> >::_Vector_impl"* %_M_impl42 to %"struct.std::_Vector_base<int, std::allocator<int> >::_Vector_impl_data"*
  %_M_finish43 = getelementptr inbounds %"struct.std::_Vector_base<int, std::allocator<int> >::_Vector_impl_data", %"struct.std::_Vector_base<int, std::allocator<int> >::_Vector_impl_data"* %62, i32 0, i32 1
  %63 = load i32*, i32** %_M_finish43, align 8
  %add.ptr44 = getelementptr inbounds i32, i32* %63, i64 %60
  store i32* %add.ptr44, i32** %_M_finish43, align 8
  %64 = load i32*, i32** %__first.addr, align 8
  %65 = load i32*, i32** %__mid, align 8
  %66 = bitcast %"class.__gnu_cxx::__normal_iterator"* %agg.tmp45 to i8*
  %67 = bitcast %"class.__gnu_cxx::__normal_iterator"* %__position to i8*
  call void @llvm.memcpy.p0i8.p0i8.i64(i8* align 8 %66, i8* align 8 %67, i64 8, i1 false)
  %coerce.dive46 = getelementptr inbounds %"class.__gnu_cxx::__normal_iterator", %"class.__gnu_cxx::__normal_iterator"* %agg.tmp45, i32 0, i32 0
  %68 = load i32*, i32** %coerce.dive46, align 8
  %call47 = call i32* @_ZSt4copyIPiN9__gnu_cxx17__normal_iteratorIS0_St6vectorIiSaIiEEEEET0_T_S8_S7_(i32* %64, i32* %65, i32* %68)
  %coerce.dive49 = getelementptr inbounds %"class.__gnu_cxx::__normal_iterator", %"class.__gnu_cxx::__normal_iterator"* %coerce48, i32 0, i32 0
  store i32* %call47, i32** %coerce.dive49, align 8
  br label %if.end

if.end:                                           ; preds = %if.else, %if.then11
  br label %if.end93

if.else50:                                        ; preds = %if.then
  %69 = load i64, i64* %__n, align 8
  %call51 = call i64 @_ZNKSt6vectorIiSaIiEE12_M_check_lenEmPKc(%"class.std::vector"* %this1, i64 %69, i8* getelementptr inbounds ([24 x i8], [24 x i8]* @.str.2, i32 0, i32 0))
  store i64 %call51, i64* %__len, align 8
  %70 = bitcast %"class.std::vector"* %this1 to %"struct.std::_Vector_base"*
  %71 = load i64, i64* %__len, align 8
  %call52 = call i32* @_ZNSt12_Vector_baseIiSaIiEE11_M_allocateEm(%"struct.std::_Vector_base"* %70, i64 %71)
  store i32* %call52, i32** %__new_start, align 8
  %72 = load i32*, i32** %__new_start, align 8
  store i32* %72, i32** %__new_finish, align 8
  %73 = bitcast %"class.std::vector"* %this1 to %"struct.std::_Vector_base"*
  %_M_impl53 = getelementptr inbounds %"struct.std::_Vector_base", %"struct.std::_Vector_base"* %73, i32 0, i32 0
  %74 = bitcast %"struct.std::_Vector_base<int, std::allocator<int> >::_Vector_impl"* %_M_impl53 to %"struct.std::_Vector_base<int, std::allocator<int> >::_Vector_impl_data"*
  %_M_start = getelementptr inbounds %"struct.std::_Vector_base<int, std::allocator<int> >::_Vector_impl_data", %"struct.std::_Vector_base<int, std::allocator<int> >::_Vector_impl_data"* %74, i32 0, i32 0
  %75 = load i32*, i32** %_M_start, align 8
  %call54 = call dereferenceable(8) i32** @_ZNK9__gnu_cxx17__normal_iteratorIPiSt6vectorIiSaIiEEE4baseEv(%"class.__gnu_cxx::__normal_iterator"* %__position) #3
  %76 = load i32*, i32** %call54, align 8
  %77 = load i32*, i32** %__new_start, align 8
  %78 = bitcast %"class.std::vector"* %this1 to %"struct.std::_Vector_base"*
  %call55 = call dereferenceable(1) %"class.std::allocator"* @_ZNSt12_Vector_baseIiSaIiEE19_M_get_Tp_allocatorEv(%"struct.std::_Vector_base"* %78) #3
  %call56 = invoke i32* @_ZSt34__uninitialized_move_if_noexcept_aIPiS0_SaIiEET0_T_S3_S2_RT1_(i32* %75, i32* %76, i32* %77, %"class.std::allocator"* dereferenceable(1) %call55)
          to label %invoke.cont unwind label %lpad

invoke.cont:                                      ; preds = %if.else50
  store i32* %call56, i32** %__new_finish, align 8
  %79 = load i32*, i32** %__first.addr, align 8
  %80 = load i32*, i32** %__last.addr, align 8
  %81 = load i32*, i32** %__new_finish, align 8
  %82 = bitcast %"class.std::vector"* %this1 to %"struct.std::_Vector_base"*
  %call57 = call dereferenceable(1) %"class.std::allocator"* @_ZNSt12_Vector_baseIiSaIiEE19_M_get_Tp_allocatorEv(%"struct.std::_Vector_base"* %82) #3
  %call59 = invoke i32* @_ZSt22__uninitialized_copy_aIPiS0_iET0_T_S2_S1_RSaIT1_E(i32* %79, i32* %80, i32* %81, %"class.std::allocator"* dereferenceable(1) %call57)
          to label %invoke.cont58 unwind label %lpad

invoke.cont58:                                    ; preds = %invoke.cont
  store i32* %call59, i32** %__new_finish, align 8
  %call60 = call dereferenceable(8) i32** @_ZNK9__gnu_cxx17__normal_iteratorIPiSt6vectorIiSaIiEEE4baseEv(%"class.__gnu_cxx::__normal_iterator"* %__position) #3
  %83 = load i32*, i32** %call60, align 8
  %84 = bitcast %"class.std::vector"* %this1 to %"struct.std::_Vector_base"*
  %_M_impl61 = getelementptr inbounds %"struct.std::_Vector_base", %"struct.std::_Vector_base"* %84, i32 0, i32 0
  %85 = bitcast %"struct.std::_Vector_base<int, std::allocator<int> >::_Vector_impl"* %_M_impl61 to %"struct.std::_Vector_base<int, std::allocator<int> >::_Vector_impl_data"*
  %_M_finish62 = getelementptr inbounds %"struct.std::_Vector_base<int, std::allocator<int> >::_Vector_impl_data", %"struct.std::_Vector_base<int, std::allocator<int> >::_Vector_impl_data"* %85, i32 0, i32 1
  %86 = load i32*, i32** %_M_finish62, align 8
  %87 = load i32*, i32** %__new_finish, align 8
  %88 = bitcast %"class.std::vector"* %this1 to %"struct.std::_Vector_base"*
  %call63 = call dereferenceable(1) %"class.std::allocator"* @_ZNSt12_Vector_baseIiSaIiEE19_M_get_Tp_allocatorEv(%"struct.std::_Vector_base"* %88) #3
  %call65 = invoke i32* @_ZSt34__uninitialized_move_if_noexcept_aIPiS0_SaIiEET0_T_S3_S2_RT1_(i32* %83, i32* %86, i32* %87, %"class.std::allocator"* dereferenceable(1) %call63)
          to label %invoke.cont64 unwind label %lpad

invoke.cont64:                                    ; preds = %invoke.cont58
  store i32* %call65, i32** %__new_finish, align 8
  br label %try.cont

lpad:                                             ; preds = %invoke.cont58, %invoke.cont, %if.else50
  %89 = landingpad { i8*, i32 }
          catch i8* null
  %90 = extractvalue { i8*, i32 } %89, 0
  store i8* %90, i8** %exn.slot, align 8
  %91 = extractvalue { i8*, i32 } %89, 1
  store i32 %91, i32* %ehselector.slot, align 4
  br label %catch

catch:                                            ; preds = %lpad
  %exn = load i8*, i8** %exn.slot, align 8
  %92 = call i8* @__cxa_begin_catch(i8* %exn) #3
  %93 = load i32*, i32** %__new_start, align 8
  %94 = load i32*, i32** %__new_finish, align 8
  %95 = bitcast %"class.std::vector"* %this1 to %"struct.std::_Vector_base"*
  %call66 = call dereferenceable(1) %"class.std::allocator"* @_ZNSt12_Vector_baseIiSaIiEE19_M_get_Tp_allocatorEv(%"struct.std::_Vector_base"* %95) #3
  invoke void @_ZSt8_DestroyIPiiEvT_S1_RSaIT0_E(i32* %93, i32* %94, %"class.std::allocator"* dereferenceable(1) %call66)
          to label %invoke.cont68 unwind label %lpad67

invoke.cont68:                                    ; preds = %catch
  %96 = bitcast %"class.std::vector"* %this1 to %"struct.std::_Vector_base"*
  %97 = load i32*, i32** %__new_start, align 8
  %98 = load i64, i64* %__len, align 8
  invoke void @_ZNSt12_Vector_baseIiSaIiEE13_M_deallocateEPim(%"struct.std::_Vector_base"* %96, i32* %97, i64 %98)
          to label %invoke.cont69 unwind label %lpad67

invoke.cont69:                                    ; preds = %invoke.cont68
  invoke void @__cxa_rethrow() #13
          to label %unreachable unwind label %lpad67

lpad67:                                           ; preds = %invoke.cont69, %invoke.cont68, %catch
  %99 = landingpad { i8*, i32 }
          cleanup
  %100 = extractvalue { i8*, i32 } %99, 0
  store i8* %100, i8** %exn.slot, align 8
  %101 = extractvalue { i8*, i32 } %99, 1
  store i32 %101, i32* %ehselector.slot, align 4
  invoke void @__cxa_end_catch()
          to label %invoke.cont70 unwind label %terminate.lpad

invoke.cont70:                                    ; preds = %lpad67
  br label %eh.resume

try.cont:                                         ; preds = %invoke.cont64
  %102 = bitcast %"class.std::vector"* %this1 to %"struct.std::_Vector_base"*
  %_M_impl71 = getelementptr inbounds %"struct.std::_Vector_base", %"struct.std::_Vector_base"* %102, i32 0, i32 0
  %103 = bitcast %"struct.std::_Vector_base<int, std::allocator<int> >::_Vector_impl"* %_M_impl71 to %"struct.std::_Vector_base<int, std::allocator<int> >::_Vector_impl_data"*
  %_M_start72 = getelementptr inbounds %"struct.std::_Vector_base<int, std::allocator<int> >::_Vector_impl_data", %"struct.std::_Vector_base<int, std::allocator<int> >::_Vector_impl_data"* %103, i32 0, i32 0
  %104 = load i32*, i32** %_M_start72, align 8
  %105 = bitcast %"class.std::vector"* %this1 to %"struct.std::_Vector_base"*
  %_M_impl73 = getelementptr inbounds %"struct.std::_Vector_base", %"struct.std::_Vector_base"* %105, i32 0, i32 0
  %106 = bitcast %"struct.std::_Vector_base<int, std::allocator<int> >::_Vector_impl"* %_M_impl73 to %"struct.std::_Vector_base<int, std::allocator<int> >::_Vector_impl_data"*
  %_M_finish74 = getelementptr inbounds %"struct.std::_Vector_base<int, std::allocator<int> >::_Vector_impl_data", %"struct.std::_Vector_base<int, std::allocator<int> >::_Vector_impl_data"* %106, i32 0, i32 1
  %107 = load i32*, i32** %_M_finish74, align 8
  %108 = bitcast %"class.std::vector"* %this1 to %"struct.std::_Vector_base"*
  %call75 = call dereferenceable(1) %"class.std::allocator"* @_ZNSt12_Vector_baseIiSaIiEE19_M_get_Tp_allocatorEv(%"struct.std::_Vector_base"* %108) #3
  call void @_ZSt8_DestroyIPiiEvT_S1_RSaIT0_E(i32* %104, i32* %107, %"class.std::allocator"* dereferenceable(1) %call75)
  %109 = bitcast %"class.std::vector"* %this1 to %"struct.std::_Vector_base"*
  %110 = bitcast %"class.std::vector"* %this1 to %"struct.std::_Vector_base"*
  %_M_impl76 = getelementptr inbounds %"struct.std::_Vector_base", %"struct.std::_Vector_base"* %110, i32 0, i32 0
  %111 = bitcast %"struct.std::_Vector_base<int, std::allocator<int> >::_Vector_impl"* %_M_impl76 to %"struct.std::_Vector_base<int, std::allocator<int> >::_Vector_impl_data"*
  %_M_start77 = getelementptr inbounds %"struct.std::_Vector_base<int, std::allocator<int> >::_Vector_impl_data", %"struct.std::_Vector_base<int, std::allocator<int> >::_Vector_impl_data"* %111, i32 0, i32 0
  %112 = load i32*, i32** %_M_start77, align 8
  %113 = bitcast %"class.std::vector"* %this1 to %"struct.std::_Vector_base"*
  %_M_impl78 = getelementptr inbounds %"struct.std::_Vector_base", %"struct.std::_Vector_base"* %113, i32 0, i32 0
  %114 = bitcast %"struct.std::_Vector_base<int, std::allocator<int> >::_Vector_impl"* %_M_impl78 to %"struct.std::_Vector_base<int, std::allocator<int> >::_Vector_impl_data"*
  %_M_end_of_storage79 = getelementptr inbounds %"struct.std::_Vector_base<int, std::allocator<int> >::_Vector_impl_data", %"struct.std::_Vector_base<int, std::allocator<int> >::_Vector_impl_data"* %114, i32 0, i32 2
  %115 = load i32*, i32** %_M_end_of_storage79, align 8
  %116 = bitcast %"class.std::vector"* %this1 to %"struct.std::_Vector_base"*
  %_M_impl80 = getelementptr inbounds %"struct.std::_Vector_base", %"struct.std::_Vector_base"* %116, i32 0, i32 0
  %117 = bitcast %"struct.std::_Vector_base<int, std::allocator<int> >::_Vector_impl"* %_M_impl80 to %"struct.std::_Vector_base<int, std::allocator<int> >::_Vector_impl_data"*
  %_M_start81 = getelementptr inbounds %"struct.std::_Vector_base<int, std::allocator<int> >::_Vector_impl_data", %"struct.std::_Vector_base<int, std::allocator<int> >::_Vector_impl_data"* %117, i32 0, i32 0
  %118 = load i32*, i32** %_M_start81, align 8
  %sub.ptr.lhs.cast82 = ptrtoint i32* %115 to i64
  %sub.ptr.rhs.cast83 = ptrtoint i32* %118 to i64
  %sub.ptr.sub84 = sub i64 %sub.ptr.lhs.cast82, %sub.ptr.rhs.cast83
  %sub.ptr.div85 = sdiv exact i64 %sub.ptr.sub84, 4
  call void @_ZNSt12_Vector_baseIiSaIiEE13_M_deallocateEPim(%"struct.std::_Vector_base"* %109, i32* %112, i64 %sub.ptr.div85)
  %119 = load i32*, i32** %__new_start, align 8
  %120 = bitcast %"class.std::vector"* %this1 to %"struct.std::_Vector_base"*
  %_M_impl86 = getelementptr inbounds %"struct.std::_Vector_base", %"struct.std::_Vector_base"* %120, i32 0, i32 0
  %121 = bitcast %"struct.std::_Vector_base<int, std::allocator<int> >::_Vector_impl"* %_M_impl86 to %"struct.std::_Vector_base<int, std::allocator<int> >::_Vector_impl_data"*
  %_M_start87 = getelementptr inbounds %"struct.std::_Vector_base<int, std::allocator<int> >::_Vector_impl_data", %"struct.std::_Vector_base<int, std::allocator<int> >::_Vector_impl_data"* %121, i32 0, i32 0
  store i32* %119, i32** %_M_start87, align 8
  %122 = load i32*, i32** %__new_finish, align 8
  %123 = bitcast %"class.std::vector"* %this1 to %"struct.std::_Vector_base"*
  %_M_impl88 = getelementptr inbounds %"struct.std::_Vector_base", %"struct.std::_Vector_base"* %123, i32 0, i32 0
  %124 = bitcast %"struct.std::_Vector_base<int, std::allocator<int> >::_Vector_impl"* %_M_impl88 to %"struct.std::_Vector_base<int, std::allocator<int> >::_Vector_impl_data"*
  %_M_finish89 = getelementptr inbounds %"struct.std::_Vector_base<int, std::allocator<int> >::_Vector_impl_data", %"struct.std::_Vector_base<int, std::allocator<int> >::_Vector_impl_data"* %124, i32 0, i32 1
  store i32* %122, i32** %_M_finish89, align 8
  %125 = load i32*, i32** %__new_start, align 8
  %126 = load i64, i64* %__len, align 8
  %add.ptr90 = getelementptr inbounds i32, i32* %125, i64 %126
  %127 = bitcast %"class.std::vector"* %this1 to %"struct.std::_Vector_base"*
  %_M_impl91 = getelementptr inbounds %"struct.std::_Vector_base", %"struct.std::_Vector_base"* %127, i32 0, i32 0
  %128 = bitcast %"struct.std::_Vector_base<int, std::allocator<int> >::_Vector_impl"* %_M_impl91 to %"struct.std::_Vector_base<int, std::allocator<int> >::_Vector_impl_data"*
  %_M_end_of_storage92 = getelementptr inbounds %"struct.std::_Vector_base<int, std::allocator<int> >::_Vector_impl_data", %"struct.std::_Vector_base<int, std::allocator<int> >::_Vector_impl_data"* %128, i32 0, i32 2
  store i32* %add.ptr90, i32** %_M_end_of_storage92, align 8
  br label %if.end93

if.end93:                                         ; preds = %try.cont, %if.end
  br label %if.end94

if.end94:                                         ; preds = %if.end93, %entry
  ret void

eh.resume:                                        ; preds = %invoke.cont70
  %exn95 = load i8*, i8** %exn.slot, align 8
  %sel = load i32, i32* %ehselector.slot, align 4
  %lpad.val = insertvalue { i8*, i32 } undef, i8* %exn95, 0
  %lpad.val96 = insertvalue { i8*, i32 } %lpad.val, i32 %sel, 1
  resume { i8*, i32 } %lpad.val96

terminate.lpad:                                   ; preds = %lpad67
  %129 = landingpad { i8*, i32 }
          catch i8* null
  %130 = extractvalue { i8*, i32 } %129, 0
  call void @__clang_call_terminate(i8* %130) #12
  unreachable

unreachable:                                      ; preds = %invoke.cont69
  unreachable
}

; Function Attrs: noinline nounwind uwtable
define linkonce_odr dso_local void @_ZSt19__iterator_categoryIPiENSt15iterator_traitsIT_E17iterator_categoryERKS2_(i32** dereferenceable(8)) #5 comdat {
entry:
  %retval = alloca %"struct.std::random_access_iterator_tag", align 1
  %.addr = alloca i32**, align 8
  store i32** %0, i32*** %.addr, align 8
  ret void
}

; Function Attrs: noinline uwtable
define linkonce_odr dso_local i64 @_ZSt8distanceIPiENSt15iterator_traitsIT_E15difference_typeES2_S2_(i32* %__first, i32* %__last) #0 comdat {
entry:
  %__first.addr = alloca i32*, align 8
  %__last.addr = alloca i32*, align 8
  %agg.tmp = alloca %"struct.std::random_access_iterator_tag", align 1
  %undef.agg.tmp = alloca %"struct.std::random_access_iterator_tag", align 1
  store i32* %__first, i32** %__first.addr, align 8
  store i32* %__last, i32** %__last.addr, align 8
  %0 = load i32*, i32** %__first.addr, align 8
  %1 = load i32*, i32** %__last.addr, align 8
  call void @_ZSt19__iterator_categoryIPiENSt15iterator_traitsIT_E17iterator_categoryERKS2_(i32** dereferenceable(8) %__first.addr)
  %call = call i64 @_ZSt10__distanceIPiENSt15iterator_traitsIT_E15difference_typeES2_S2_St26random_access_iterator_tag(i32* %0, i32* %1)
  ret i64 %call
}

; Function Attrs: noinline nounwind uwtable
define linkonce_odr dso_local i64 @_ZN9__gnu_cxxmiIPiSt6vectorIiSaIiEEEENS_17__normal_iteratorIT_T0_E15difference_typeERKS8_SB_(%"class.__gnu_cxx::__normal_iterator"* dereferenceable(8) %__lhs, %"class.__gnu_cxx::__normal_iterator"* dereferenceable(8) %__rhs) #5 comdat {
entry:
  %__lhs.addr = alloca %"class.__gnu_cxx::__normal_iterator"*, align 8
  %__rhs.addr = alloca %"class.__gnu_cxx::__normal_iterator"*, align 8
  store %"class.__gnu_cxx::__normal_iterator"* %__lhs, %"class.__gnu_cxx::__normal_iterator"** %__lhs.addr, align 8
  store %"class.__gnu_cxx::__normal_iterator"* %__rhs, %"class.__gnu_cxx::__normal_iterator"** %__rhs.addr, align 8
  %0 = load %"class.__gnu_cxx::__normal_iterator"*, %"class.__gnu_cxx::__normal_iterator"** %__lhs.addr, align 8
  %call = call dereferenceable(8) i32** @_ZNK9__gnu_cxx17__normal_iteratorIPiSt6vectorIiSaIiEEE4baseEv(%"class.__gnu_cxx::__normal_iterator"* %0) #3
  %1 = load i32*, i32** %call, align 8
  %2 = load %"class.__gnu_cxx::__normal_iterator"*, %"class.__gnu_cxx::__normal_iterator"** %__rhs.addr, align 8
  %call1 = call dereferenceable(8) i32** @_ZNK9__gnu_cxx17__normal_iteratorIPiSt6vectorIiSaIiEEE4baseEv(%"class.__gnu_cxx::__normal_iterator"* %2) #3
  %3 = load i32*, i32** %call1, align 8
  %sub.ptr.lhs.cast = ptrtoint i32* %1 to i64
  %sub.ptr.rhs.cast = ptrtoint i32* %3 to i64
  %sub.ptr.sub = sub i64 %sub.ptr.lhs.cast, %sub.ptr.rhs.cast
  %sub.ptr.div = sdiv exact i64 %sub.ptr.sub, 4
  ret i64 %sub.ptr.div
}

; Function Attrs: noinline uwtable
define linkonce_odr dso_local i32* @_ZSt22__uninitialized_move_aIPiS0_SaIiEET0_T_S3_S2_RT1_(i32* %__first, i32* %__last, i32* %__result, %"class.std::allocator"* dereferenceable(1) %__alloc) #0 comdat {
entry:
  %__first.addr = alloca i32*, align 8
  %__last.addr = alloca i32*, align 8
  %__result.addr = alloca i32*, align 8
  %__alloc.addr = alloca %"class.std::allocator"*, align 8
  %agg.tmp = alloca %"class.std::move_iterator", align 8
  %agg.tmp1 = alloca %"class.std::move_iterator", align 8
  store i32* %__first, i32** %__first.addr, align 8
  store i32* %__last, i32** %__last.addr, align 8
  store i32* %__result, i32** %__result.addr, align 8
  store %"class.std::allocator"* %__alloc, %"class.std::allocator"** %__alloc.addr, align 8
  %0 = load i32*, i32** %__first.addr, align 8
  %call = call i32* @_ZSt18make_move_iteratorIPiESt13move_iteratorIT_ES2_(i32* %0)
  %coerce.dive = getelementptr inbounds %"class.std::move_iterator", %"class.std::move_iterator"* %agg.tmp, i32 0, i32 0
  store i32* %call, i32** %coerce.dive, align 8
  %1 = load i32*, i32** %__last.addr, align 8
  %call2 = call i32* @_ZSt18make_move_iteratorIPiESt13move_iteratorIT_ES2_(i32* %1)
  %coerce.dive3 = getelementptr inbounds %"class.std::move_iterator", %"class.std::move_iterator"* %agg.tmp1, i32 0, i32 0
  store i32* %call2, i32** %coerce.dive3, align 8
  %2 = load i32*, i32** %__result.addr, align 8
  %3 = load %"class.std::allocator"*, %"class.std::allocator"** %__alloc.addr, align 8
  %coerce.dive4 = getelementptr inbounds %"class.std::move_iterator", %"class.std::move_iterator"* %agg.tmp, i32 0, i32 0
  %4 = load i32*, i32** %coerce.dive4, align 8
  %coerce.dive5 = getelementptr inbounds %"class.std::move_iterator", %"class.std::move_iterator"* %agg.tmp1, i32 0, i32 0
  %5 = load i32*, i32** %coerce.dive5, align 8
  %call6 = call i32* @_ZSt22__uninitialized_copy_aISt13move_iteratorIPiES1_iET0_T_S4_S3_RSaIT1_E(i32* %4, i32* %5, i32* %2, %"class.std::allocator"* dereferenceable(1) %3)
  ret i32* %call6
}

; Function Attrs: noinline uwtable
define linkonce_odr dso_local i32* @_ZSt13move_backwardIPiS0_ET0_T_S2_S1_(i32* %__first, i32* %__last, i32* %__result) #0 comdat {
entry:
  %__first.addr = alloca i32*, align 8
  %__last.addr = alloca i32*, align 8
  %__result.addr = alloca i32*, align 8
  store i32* %__first, i32** %__first.addr, align 8
  store i32* %__last, i32** %__last.addr, align 8
  store i32* %__result, i32** %__result.addr, align 8
  %0 = load i32*, i32** %__first.addr, align 8
  %call = call i32* @_ZSt12__miter_baseIPiET_S1_(i32* %0)
  %1 = load i32*, i32** %__last.addr, align 8
  %call1 = call i32* @_ZSt12__miter_baseIPiET_S1_(i32* %1)
  %2 = load i32*, i32** %__result.addr, align 8
  %call2 = call i32* @_ZSt22__copy_move_backward_aILb1EPiS0_ET1_T0_S2_S1_(i32* %call, i32* %call1, i32* %2)
  ret i32* %call2
}

; Function Attrs: noinline nounwind uwtable
define linkonce_odr dso_local dereferenceable(8) i32** @_ZNK9__gnu_cxx17__normal_iteratorIPiSt6vectorIiSaIiEEE4baseEv(%"class.__gnu_cxx::__normal_iterator"* %this) #5 comdat align 2 {
entry:
  %this.addr = alloca %"class.__gnu_cxx::__normal_iterator"*, align 8
  store %"class.__gnu_cxx::__normal_iterator"* %this, %"class.__gnu_cxx::__normal_iterator"** %this.addr, align 8
  %this1 = load %"class.__gnu_cxx::__normal_iterator"*, %"class.__gnu_cxx::__normal_iterator"** %this.addr, align 8
  %_M_current = getelementptr inbounds %"class.__gnu_cxx::__normal_iterator", %"class.__gnu_cxx::__normal_iterator"* %this1, i32 0, i32 0
  ret i32** %_M_current
}

; Function Attrs: noinline uwtable
define linkonce_odr dso_local i32* @_ZSt4copyIPiN9__gnu_cxx17__normal_iteratorIS0_St6vectorIiSaIiEEEEET0_T_S8_S7_(i32* %__first, i32* %__last, i32* %__result.coerce) #0 comdat {
entry:
  %retval = alloca %"class.__gnu_cxx::__normal_iterator", align 8
  %__result = alloca %"class.__gnu_cxx::__normal_iterator", align 8
  %__first.addr = alloca i32*, align 8
  %__last.addr = alloca i32*, align 8
  %agg.tmp = alloca %"class.__gnu_cxx::__normal_iterator", align 8
  %coerce.dive = getelementptr inbounds %"class.__gnu_cxx::__normal_iterator", %"class.__gnu_cxx::__normal_iterator"* %__result, i32 0, i32 0
  store i32* %__result.coerce, i32** %coerce.dive, align 8
  store i32* %__first, i32** %__first.addr, align 8
  store i32* %__last, i32** %__last.addr, align 8
  %0 = load i32*, i32** %__first.addr, align 8
  %call = call i32* @_ZSt12__miter_baseIPiET_S1_(i32* %0)
  %1 = load i32*, i32** %__last.addr, align 8
  %call1 = call i32* @_ZSt12__miter_baseIPiET_S1_(i32* %1)
  %2 = bitcast %"class.__gnu_cxx::__normal_iterator"* %agg.tmp to i8*
  %3 = bitcast %"class.__gnu_cxx::__normal_iterator"* %__result to i8*
  call void @llvm.memcpy.p0i8.p0i8.i64(i8* align 8 %2, i8* align 8 %3, i64 8, i1 false)
  %coerce.dive2 = getelementptr inbounds %"class.__gnu_cxx::__normal_iterator", %"class.__gnu_cxx::__normal_iterator"* %agg.tmp, i32 0, i32 0
  %4 = load i32*, i32** %coerce.dive2, align 8
  %call3 = call i32* @_ZSt13__copy_move_aILb0EPiN9__gnu_cxx17__normal_iteratorIS0_St6vectorIiSaIiEEEEET1_T0_S8_S7_(i32* %call, i32* %call1, i32* %4)
  %coerce.dive4 = getelementptr inbounds %"class.__gnu_cxx::__normal_iterator", %"class.__gnu_cxx::__normal_iterator"* %retval, i32 0, i32 0
  store i32* %call3, i32** %coerce.dive4, align 8
  %coerce.dive5 = getelementptr inbounds %"class.__gnu_cxx::__normal_iterator", %"class.__gnu_cxx::__normal_iterator"* %retval, i32 0, i32 0
  %5 = load i32*, i32** %coerce.dive5, align 8
  ret i32* %5
}

; Function Attrs: noinline uwtable
define linkonce_odr dso_local void @_ZSt7advanceIPimEvRT_T0_(i32** dereferenceable(8) %__i, i64 %__n) #0 comdat {
entry:
  %__i.addr = alloca i32**, align 8
  %__n.addr = alloca i64, align 8
  %__d = alloca i64, align 8
  %agg.tmp = alloca %"struct.std::random_access_iterator_tag", align 1
  %undef.agg.tmp = alloca %"struct.std::random_access_iterator_tag", align 1
  store i32** %__i, i32*** %__i.addr, align 8
  store i64 %__n, i64* %__n.addr, align 8
  %0 = load i64, i64* %__n.addr, align 8
  store i64 %0, i64* %__d, align 8
  %1 = load i32**, i32*** %__i.addr, align 8
  %2 = load i64, i64* %__d, align 8
  %3 = load i32**, i32*** %__i.addr, align 8
  call void @_ZSt19__iterator_categoryIPiENSt15iterator_traitsIT_E17iterator_categoryERKS2_(i32** dereferenceable(8) %3)
  call void @_ZSt9__advanceIPilEvRT_T0_St26random_access_iterator_tag(i32** dereferenceable(8) %1, i64 %2)
  ret void
}

; Function Attrs: noinline uwtable
define linkonce_odr dso_local i32* @_ZSt22__uninitialized_copy_aIPiS0_iET0_T_S2_S1_RSaIT1_E(i32* %__first, i32* %__last, i32* %__result, %"class.std::allocator"* dereferenceable(1)) #0 comdat {
entry:
  %__first.addr = alloca i32*, align 8
  %__last.addr = alloca i32*, align 8
  %__result.addr = alloca i32*, align 8
  %.addr = alloca %"class.std::allocator"*, align 8
  store i32* %__first, i32** %__first.addr, align 8
  store i32* %__last, i32** %__last.addr, align 8
  store i32* %__result, i32** %__result.addr, align 8
  store %"class.std::allocator"* %0, %"class.std::allocator"** %.addr, align 8
  %1 = load i32*, i32** %__first.addr, align 8
  %2 = load i32*, i32** %__last.addr, align 8
  %3 = load i32*, i32** %__result.addr, align 8
  %call = call i32* @_ZSt18uninitialized_copyIPiS0_ET0_T_S2_S1_(i32* %1, i32* %2, i32* %3)
  ret i32* %call
}

; Function Attrs: noinline uwtable
define linkonce_odr dso_local i64 @_ZNKSt6vectorIiSaIiEE12_M_check_lenEmPKc(%"class.std::vector"* %this, i64 %__n, i8* %__s) #0 comdat align 2 {
entry:
  %this.addr = alloca %"class.std::vector"*, align 8
  %__n.addr = alloca i64, align 8
  %__s.addr = alloca i8*, align 8
  %__len = alloca i64, align 8
  %ref.tmp = alloca i64, align 8
  store %"class.std::vector"* %this, %"class.std::vector"** %this.addr, align 8
  store i64 %__n, i64* %__n.addr, align 8
  store i8* %__s, i8** %__s.addr, align 8
  %this1 = load %"class.std::vector"*, %"class.std::vector"** %this.addr, align 8
  %call = call i64 @_ZNKSt6vectorIiSaIiEE8max_sizeEv(%"class.std::vector"* %this1) #3
  %call2 = call i64 @_ZNKSt6vectorIiSaIiEE4sizeEv(%"class.std::vector"* %this1) #3
  %sub = sub i64 %call, %call2
  %0 = load i64, i64* %__n.addr, align 8
  %cmp = icmp ult i64 %sub, %0
  br i1 %cmp, label %if.then, label %if.end

if.then:                                          ; preds = %entry
  %1 = load i8*, i8** %__s.addr, align 8
  call void @_ZSt20__throw_length_errorPKc(i8* %1) #13
  unreachable

if.end:                                           ; preds = %entry
  %call3 = call i64 @_ZNKSt6vectorIiSaIiEE4sizeEv(%"class.std::vector"* %this1) #3
  %call4 = call i64 @_ZNKSt6vectorIiSaIiEE4sizeEv(%"class.std::vector"* %this1) #3
  store i64 %call4, i64* %ref.tmp, align 8
  %call5 = call dereferenceable(8) i64* @_ZSt3maxImERKT_S2_S2_(i64* dereferenceable(8) %ref.tmp, i64* dereferenceable(8) %__n.addr)
  %2 = load i64, i64* %call5, align 8
  %add = add i64 %call3, %2
  store i64 %add, i64* %__len, align 8
  %3 = load i64, i64* %__len, align 8
  %call6 = call i64 @_ZNKSt6vectorIiSaIiEE4sizeEv(%"class.std::vector"* %this1) #3
  %cmp7 = icmp ult i64 %3, %call6
  br i1 %cmp7, label %cond.true, label %lor.lhs.false

lor.lhs.false:                                    ; preds = %if.end
  %4 = load i64, i64* %__len, align 8
  %call8 = call i64 @_ZNKSt6vectorIiSaIiEE8max_sizeEv(%"class.std::vector"* %this1) #3
  %cmp9 = icmp ugt i64 %4, %call8
  br i1 %cmp9, label %cond.true, label %cond.false

cond.true:                                        ; preds = %lor.lhs.false, %if.end
  %call10 = call i64 @_ZNKSt6vectorIiSaIiEE8max_sizeEv(%"class.std::vector"* %this1) #3
  br label %cond.end

cond.false:                                       ; preds = %lor.lhs.false
  %5 = load i64, i64* %__len, align 8
  br label %cond.end

cond.end:                                         ; preds = %cond.false, %cond.true
  %cond = phi i64 [ %call10, %cond.true ], [ %5, %cond.false ]
  ret i64 %cond
}

; Function Attrs: noinline uwtable
define linkonce_odr dso_local i32* @_ZNSt12_Vector_baseIiSaIiEE11_M_allocateEm(%"struct.std::_Vector_base"* %this, i64 %__n) #0 comdat align 2 {
entry:
  %this.addr = alloca %"struct.std::_Vector_base"*, align 8
  %__n.addr = alloca i64, align 8
  store %"struct.std::_Vector_base"* %this, %"struct.std::_Vector_base"** %this.addr, align 8
  store i64 %__n, i64* %__n.addr, align 8
  %this1 = load %"struct.std::_Vector_base"*, %"struct.std::_Vector_base"** %this.addr, align 8
  %0 = load i64, i64* %__n.addr, align 8
  %cmp = icmp ne i64 %0, 0
  br i1 %cmp, label %cond.true, label %cond.false

cond.true:                                        ; preds = %entry
  %_M_impl = getelementptr inbounds %"struct.std::_Vector_base", %"struct.std::_Vector_base"* %this1, i32 0, i32 0
  %1 = bitcast %"struct.std::_Vector_base<int, std::allocator<int> >::_Vector_impl"* %_M_impl to %"class.std::allocator"*
  %2 = load i64, i64* %__n.addr, align 8
  %call = call i32* @_ZNSt16allocator_traitsISaIiEE8allocateERS0_m(%"class.std::allocator"* dereferenceable(1) %1, i64 %2)
  br label %cond.end

cond.false:                                       ; preds = %entry
  br label %cond.end

cond.end:                                         ; preds = %cond.false, %cond.true
  %cond = phi i32* [ %call, %cond.true ], [ null, %cond.false ]
  ret i32* %cond
}

; Function Attrs: noinline uwtable
define linkonce_odr dso_local i32* @_ZSt34__uninitialized_move_if_noexcept_aIPiS0_SaIiEET0_T_S3_S2_RT1_(i32* %__first, i32* %__last, i32* %__result, %"class.std::allocator"* dereferenceable(1) %__alloc) #0 comdat {
entry:
  %__first.addr = alloca i32*, align 8
  %__last.addr = alloca i32*, align 8
  %__result.addr = alloca i32*, align 8
  %__alloc.addr = alloca %"class.std::allocator"*, align 8
  %agg.tmp = alloca %"class.std::move_iterator", align 8
  %agg.tmp1 = alloca %"class.std::move_iterator", align 8
  store i32* %__first, i32** %__first.addr, align 8
  store i32* %__last, i32** %__last.addr, align 8
  store i32* %__result, i32** %__result.addr, align 8
  store %"class.std::allocator"* %__alloc, %"class.std::allocator"** %__alloc.addr, align 8
  %0 = load i32*, i32** %__first.addr, align 8
  %call = call i32* @_ZSt32__make_move_if_noexcept_iteratorIiSt13move_iteratorIPiEET0_PT_(i32* %0)
  %coerce.dive = getelementptr inbounds %"class.std::move_iterator", %"class.std::move_iterator"* %agg.tmp, i32 0, i32 0
  store i32* %call, i32** %coerce.dive, align 8
  %1 = load i32*, i32** %__last.addr, align 8
  %call2 = call i32* @_ZSt32__make_move_if_noexcept_iteratorIiSt13move_iteratorIPiEET0_PT_(i32* %1)
  %coerce.dive3 = getelementptr inbounds %"class.std::move_iterator", %"class.std::move_iterator"* %agg.tmp1, i32 0, i32 0
  store i32* %call2, i32** %coerce.dive3, align 8
  %2 = load i32*, i32** %__result.addr, align 8
  %3 = load %"class.std::allocator"*, %"class.std::allocator"** %__alloc.addr, align 8
  %coerce.dive4 = getelementptr inbounds %"class.std::move_iterator", %"class.std::move_iterator"* %agg.tmp, i32 0, i32 0
  %4 = load i32*, i32** %coerce.dive4, align 8
  %coerce.dive5 = getelementptr inbounds %"class.std::move_iterator", %"class.std::move_iterator"* %agg.tmp1, i32 0, i32 0
  %5 = load i32*, i32** %coerce.dive5, align 8
  %call6 = call i32* @_ZSt22__uninitialized_copy_aISt13move_iteratorIPiES1_iET0_T_S4_S3_RSaIT1_E(i32* %4, i32* %5, i32* %2, %"class.std::allocator"* dereferenceable(1) %3)
  ret i32* %call6
}

declare dso_local void @__cxa_rethrow()

declare dso_local void @__cxa_end_catch()

; Function Attrs: noinline nounwind uwtable
define linkonce_odr dso_local i64 @_ZSt10__distanceIPiENSt15iterator_traitsIT_E15difference_typeES2_S2_St26random_access_iterator_tag(i32* %__first, i32* %__last) #5 comdat {
entry:
  %0 = alloca %"struct.std::random_access_iterator_tag", align 1
  %__first.addr = alloca i32*, align 8
  %__last.addr = alloca i32*, align 8
  store i32* %__first, i32** %__first.addr, align 8
  store i32* %__last, i32** %__last.addr, align 8
  %1 = load i32*, i32** %__last.addr, align 8
  %2 = load i32*, i32** %__first.addr, align 8
  %sub.ptr.lhs.cast = ptrtoint i32* %1 to i64
  %sub.ptr.rhs.cast = ptrtoint i32* %2 to i64
  %sub.ptr.sub = sub i64 %sub.ptr.lhs.cast, %sub.ptr.rhs.cast
  %sub.ptr.div = sdiv exact i64 %sub.ptr.sub, 4
  ret i64 %sub.ptr.div
}

; Function Attrs: noinline uwtable
define linkonce_odr dso_local i32* @_ZSt22__uninitialized_copy_aISt13move_iteratorIPiES1_iET0_T_S4_S3_RSaIT1_E(i32* %__first.coerce, i32* %__last.coerce, i32* %__result, %"class.std::allocator"* dereferenceable(1)) #0 comdat {
entry:
  %__first = alloca %"class.std::move_iterator", align 8
  %__last = alloca %"class.std::move_iterator", align 8
  %__result.addr = alloca i32*, align 8
  %.addr = alloca %"class.std::allocator"*, align 8
  %agg.tmp = alloca %"class.std::move_iterator", align 8
  %agg.tmp2 = alloca %"class.std::move_iterator", align 8
  %coerce.dive = getelementptr inbounds %"class.std::move_iterator", %"class.std::move_iterator"* %__first, i32 0, i32 0
  store i32* %__first.coerce, i32** %coerce.dive, align 8
  %coerce.dive1 = getelementptr inbounds %"class.std::move_iterator", %"class.std::move_iterator"* %__last, i32 0, i32 0
  store i32* %__last.coerce, i32** %coerce.dive1, align 8
  store i32* %__result, i32** %__result.addr, align 8
  store %"class.std::allocator"* %0, %"class.std::allocator"** %.addr, align 8
  %1 = bitcast %"class.std::move_iterator"* %agg.tmp to i8*
  %2 = bitcast %"class.std::move_iterator"* %__first to i8*
  call void @llvm.memcpy.p0i8.p0i8.i64(i8* align 8 %1, i8* align 8 %2, i64 8, i1 false)
  %3 = bitcast %"class.std::move_iterator"* %agg.tmp2 to i8*
  %4 = bitcast %"class.std::move_iterator"* %__last to i8*
  call void @llvm.memcpy.p0i8.p0i8.i64(i8* align 8 %3, i8* align 8 %4, i64 8, i1 false)
  %5 = load i32*, i32** %__result.addr, align 8
  %coerce.dive3 = getelementptr inbounds %"class.std::move_iterator", %"class.std::move_iterator"* %agg.tmp, i32 0, i32 0
  %6 = load i32*, i32** %coerce.dive3, align 8
  %coerce.dive4 = getelementptr inbounds %"class.std::move_iterator", %"class.std::move_iterator"* %agg.tmp2, i32 0, i32 0
  %7 = load i32*, i32** %coerce.dive4, align 8
  %call = call i32* @_ZSt18uninitialized_copyISt13move_iteratorIPiES1_ET0_T_S4_S3_(i32* %6, i32* %7, i32* %5)
  ret i32* %call
}

; Function Attrs: noinline uwtable
define linkonce_odr dso_local i32* @_ZSt18make_move_iteratorIPiESt13move_iteratorIT_ES2_(i32* %__i) #0 comdat {
entry:
  %retval = alloca %"class.std::move_iterator", align 8
  %__i.addr = alloca i32*, align 8
  store i32* %__i, i32** %__i.addr, align 8
  %call = call dereferenceable(8) i32** @_ZSt4moveIRPiEONSt16remove_referenceIT_E4typeEOS3_(i32** dereferenceable(8) %__i.addr) #3
  %0 = load i32*, i32** %call, align 8
  call void @_ZNSt13move_iteratorIPiEC2ES0_(%"class.std::move_iterator"* %retval, i32* %0)
  %coerce.dive = getelementptr inbounds %"class.std::move_iterator", %"class.std::move_iterator"* %retval, i32 0, i32 0
  %1 = load i32*, i32** %coerce.dive, align 8
  ret i32* %1
}

; Function Attrs: noinline uwtable
define linkonce_odr dso_local i32* @_ZSt18uninitialized_copyISt13move_iteratorIPiES1_ET0_T_S4_S3_(i32* %__first.coerce, i32* %__last.coerce, i32* %__result) #0 comdat {
entry:
  %__first = alloca %"class.std::move_iterator", align 8
  %__last = alloca %"class.std::move_iterator", align 8
  %__result.addr = alloca i32*, align 8
  %__assignable = alloca i8, align 1
  %agg.tmp = alloca %"class.std::move_iterator", align 8
  %agg.tmp2 = alloca %"class.std::move_iterator", align 8
  %coerce.dive = getelementptr inbounds %"class.std::move_iterator", %"class.std::move_iterator"* %__first, i32 0, i32 0
  store i32* %__first.coerce, i32** %coerce.dive, align 8
  %coerce.dive1 = getelementptr inbounds %"class.std::move_iterator", %"class.std::move_iterator"* %__last, i32 0, i32 0
  store i32* %__last.coerce, i32** %coerce.dive1, align 8
  store i32* %__result, i32** %__result.addr, align 8
  store i8 1, i8* %__assignable, align 1
  %0 = bitcast %"class.std::move_iterator"* %agg.tmp to i8*
  %1 = bitcast %"class.std::move_iterator"* %__first to i8*
  call void @llvm.memcpy.p0i8.p0i8.i64(i8* align 8 %0, i8* align 8 %1, i64 8, i1 false)
  %2 = bitcast %"class.std::move_iterator"* %agg.tmp2 to i8*
  %3 = bitcast %"class.std::move_iterator"* %__last to i8*
  call void @llvm.memcpy.p0i8.p0i8.i64(i8* align 8 %2, i8* align 8 %3, i64 8, i1 false)
  %4 = load i32*, i32** %__result.addr, align 8
  %coerce.dive3 = getelementptr inbounds %"class.std::move_iterator", %"class.std::move_iterator"* %agg.tmp, i32 0, i32 0
  %5 = load i32*, i32** %coerce.dive3, align 8
  %coerce.dive4 = getelementptr inbounds %"class.std::move_iterator", %"class.std::move_iterator"* %agg.tmp2, i32 0, i32 0
  %6 = load i32*, i32** %coerce.dive4, align 8
  %call = call i32* @_ZNSt20__uninitialized_copyILb1EE13__uninit_copyISt13move_iteratorIPiES3_EET0_T_S6_S5_(i32* %5, i32* %6, i32* %4)
  ret i32* %call
}

; Function Attrs: noinline uwtable
define linkonce_odr dso_local i32* @_ZNSt20__uninitialized_copyILb1EE13__uninit_copyISt13move_iteratorIPiES3_EET0_T_S6_S5_(i32* %__first.coerce, i32* %__last.coerce, i32* %__result) #0 comdat align 2 {
entry:
  %__first = alloca %"class.std::move_iterator", align 8
  %__last = alloca %"class.std::move_iterator", align 8
  %__result.addr = alloca i32*, align 8
  %agg.tmp = alloca %"class.std::move_iterator", align 8
  %agg.tmp2 = alloca %"class.std::move_iterator", align 8
  %coerce.dive = getelementptr inbounds %"class.std::move_iterator", %"class.std::move_iterator"* %__first, i32 0, i32 0
  store i32* %__first.coerce, i32** %coerce.dive, align 8
  %coerce.dive1 = getelementptr inbounds %"class.std::move_iterator", %"class.std::move_iterator"* %__last, i32 0, i32 0
  store i32* %__last.coerce, i32** %coerce.dive1, align 8
  store i32* %__result, i32** %__result.addr, align 8
  %0 = bitcast %"class.std::move_iterator"* %agg.tmp to i8*
  %1 = bitcast %"class.std::move_iterator"* %__first to i8*
  call void @llvm.memcpy.p0i8.p0i8.i64(i8* align 8 %0, i8* align 8 %1, i64 8, i1 false)
  %2 = bitcast %"class.std::move_iterator"* %agg.tmp2 to i8*
  %3 = bitcast %"class.std::move_iterator"* %__last to i8*
  call void @llvm.memcpy.p0i8.p0i8.i64(i8* align 8 %2, i8* align 8 %3, i64 8, i1 false)
  %4 = load i32*, i32** %__result.addr, align 8
  %coerce.dive3 = getelementptr inbounds %"class.std::move_iterator", %"class.std::move_iterator"* %agg.tmp, i32 0, i32 0
  %5 = load i32*, i32** %coerce.dive3, align 8
  %coerce.dive4 = getelementptr inbounds %"class.std::move_iterator", %"class.std::move_iterator"* %agg.tmp2, i32 0, i32 0
  %6 = load i32*, i32** %coerce.dive4, align 8
  %call = call i32* @_ZSt4copyISt13move_iteratorIPiES1_ET0_T_S4_S3_(i32* %5, i32* %6, i32* %4)
  ret i32* %call
}

; Function Attrs: noinline uwtable
define linkonce_odr dso_local i32* @_ZSt4copyISt13move_iteratorIPiES1_ET0_T_S4_S3_(i32* %__first.coerce, i32* %__last.coerce, i32* %__result) #0 comdat {
entry:
  %__first = alloca %"class.std::move_iterator", align 8
  %__last = alloca %"class.std::move_iterator", align 8
  %__result.addr = alloca i32*, align 8
  %agg.tmp = alloca %"class.std::move_iterator", align 8
  %agg.tmp3 = alloca %"class.std::move_iterator", align 8
  %coerce.dive = getelementptr inbounds %"class.std::move_iterator", %"class.std::move_iterator"* %__first, i32 0, i32 0
  store i32* %__first.coerce, i32** %coerce.dive, align 8
  %coerce.dive1 = getelementptr inbounds %"class.std::move_iterator", %"class.std::move_iterator"* %__last, i32 0, i32 0
  store i32* %__last.coerce, i32** %coerce.dive1, align 8
  store i32* %__result, i32** %__result.addr, align 8
  %0 = bitcast %"class.std::move_iterator"* %agg.tmp to i8*
  %1 = bitcast %"class.std::move_iterator"* %__first to i8*
  call void @llvm.memcpy.p0i8.p0i8.i64(i8* align 8 %0, i8* align 8 %1, i64 8, i1 false)
  %coerce.dive2 = getelementptr inbounds %"class.std::move_iterator", %"class.std::move_iterator"* %agg.tmp, i32 0, i32 0
  %2 = load i32*, i32** %coerce.dive2, align 8
  %call = call i32* @_ZSt12__miter_baseIPiEDTcl12__miter_basecldtfp_4baseEEESt13move_iteratorIT_E(i32* %2)
  %3 = bitcast %"class.std::move_iterator"* %agg.tmp3 to i8*
  %4 = bitcast %"class.std::move_iterator"* %__last to i8*
  call void @llvm.memcpy.p0i8.p0i8.i64(i8* align 8 %3, i8* align 8 %4, i64 8, i1 false)
  %coerce.dive4 = getelementptr inbounds %"class.std::move_iterator", %"class.std::move_iterator"* %agg.tmp3, i32 0, i32 0
  %5 = load i32*, i32** %coerce.dive4, align 8
  %call5 = call i32* @_ZSt12__miter_baseIPiEDTcl12__miter_basecldtfp_4baseEEESt13move_iteratorIT_E(i32* %5)
  %6 = load i32*, i32** %__result.addr, align 8
  %call6 = call i32* @_ZSt13__copy_move_aILb1EPiS0_ET1_T0_S2_S1_(i32* %call, i32* %call5, i32* %6)
  ret i32* %call6
}

; Function Attrs: noinline uwtable
define linkonce_odr dso_local i32* @_ZSt13__copy_move_aILb1EPiS0_ET1_T0_S2_S1_(i32* %__first, i32* %__last, i32* %__result) #0 comdat {
entry:
  %__first.addr = alloca i32*, align 8
  %__last.addr = alloca i32*, align 8
  %__result.addr = alloca i32*, align 8
  store i32* %__first, i32** %__first.addr, align 8
  store i32* %__last, i32** %__last.addr, align 8
  store i32* %__result, i32** %__result.addr, align 8
  %0 = load i32*, i32** %__first.addr, align 8
  %call = call i32* @_ZSt12__niter_baseIPiET_S1_(i32* %0) #3
  %1 = load i32*, i32** %__last.addr, align 8
  %call1 = call i32* @_ZSt12__niter_baseIPiET_S1_(i32* %1) #3
  %2 = load i32*, i32** %__result.addr, align 8
  %call2 = call i32* @_ZSt12__niter_baseIPiET_S1_(i32* %2) #3
  %call3 = call i32* @_ZSt14__copy_move_a1ILb1EPiS0_ET1_T0_S2_S1_(i32* %call, i32* %call1, i32* %call2)
  %call4 = call i32* @_ZSt12__niter_wrapIPiET_RKS1_S1_(i32** dereferenceable(8) %__result.addr, i32* %call3)
  ret i32* %call4
}

; Function Attrs: noinline uwtable
define linkonce_odr dso_local i32* @_ZSt12__miter_baseIPiEDTcl12__miter_basecldtfp_4baseEEESt13move_iteratorIT_E(i32* %__it.coerce) #0 comdat {
entry:
  %__it = alloca %"class.std::move_iterator", align 8
  %coerce.dive = getelementptr inbounds %"class.std::move_iterator", %"class.std::move_iterator"* %__it, i32 0, i32 0
  store i32* %__it.coerce, i32** %coerce.dive, align 8
  %call = call i32* @_ZNKSt13move_iteratorIPiE4baseEv(%"class.std::move_iterator"* %__it)
  %call1 = call i32* @_ZSt12__miter_baseIPiET_S1_(i32* %call)
  ret i32* %call1
}

; Function Attrs: noinline nounwind uwtable
define linkonce_odr dso_local i32* @_ZSt12__niter_wrapIPiET_RKS1_S1_(i32** dereferenceable(8), i32* %__res) #5 comdat {
entry:
  %.addr = alloca i32**, align 8
  %__res.addr = alloca i32*, align 8
  store i32** %0, i32*** %.addr, align 8
  store i32* %__res, i32** %__res.addr, align 8
  %1 = load i32*, i32** %__res.addr, align 8
  ret i32* %1
}

; Function Attrs: noinline uwtable
define linkonce_odr dso_local i32* @_ZSt14__copy_move_a1ILb1EPiS0_ET1_T0_S2_S1_(i32* %__first, i32* %__last, i32* %__result) #0 comdat {
entry:
  %__first.addr = alloca i32*, align 8
  %__last.addr = alloca i32*, align 8
  %__result.addr = alloca i32*, align 8
  store i32* %__first, i32** %__first.addr, align 8
  store i32* %__last, i32** %__last.addr, align 8
  store i32* %__result, i32** %__result.addr, align 8
  %0 = load i32*, i32** %__first.addr, align 8
  %1 = load i32*, i32** %__last.addr, align 8
  %2 = load i32*, i32** %__result.addr, align 8
  %call = call i32* @_ZSt14__copy_move_a2ILb1EPiS0_ET1_T0_S2_S1_(i32* %0, i32* %1, i32* %2)
  ret i32* %call
}

; Function Attrs: noinline nounwind uwtable
define linkonce_odr dso_local i32* @_ZSt12__niter_baseIPiET_S1_(i32* %__it) #5 comdat {
entry:
  %__it.addr = alloca i32*, align 8
  store i32* %__it, i32** %__it.addr, align 8
  %0 = load i32*, i32** %__it.addr, align 8
  ret i32* %0
}

; Function Attrs: noinline uwtable
define linkonce_odr dso_local i32* @_ZSt14__copy_move_a2ILb1EPiS0_ET1_T0_S2_S1_(i32* %__first, i32* %__last, i32* %__result) #0 comdat {
entry:
  %__first.addr = alloca i32*, align 8
  %__last.addr = alloca i32*, align 8
  %__result.addr = alloca i32*, align 8
  store i32* %__first, i32** %__first.addr, align 8
  store i32* %__last, i32** %__last.addr, align 8
  store i32* %__result, i32** %__result.addr, align 8
  %0 = load i32*, i32** %__first.addr, align 8
  %1 = load i32*, i32** %__last.addr, align 8
  %2 = load i32*, i32** %__result.addr, align 8
  %call = call i32* @_ZNSt11__copy_moveILb1ELb1ESt26random_access_iterator_tagE8__copy_mIiEEPT_PKS3_S6_S4_(i32* %0, i32* %1, i32* %2)
  ret i32* %call
}

; Function Attrs: noinline nounwind uwtable
define linkonce_odr dso_local i32* @_ZNSt11__copy_moveILb1ELb1ESt26random_access_iterator_tagE8__copy_mIiEEPT_PKS3_S6_S4_(i32* %__first, i32* %__last, i32* %__result) #5 comdat align 2 {
entry:
  %__first.addr = alloca i32*, align 8
  %__last.addr = alloca i32*, align 8
  %__result.addr = alloca i32*, align 8
  %_Num = alloca i64, align 8
  store i32* %__first, i32** %__first.addr, align 8
  store i32* %__last, i32** %__last.addr, align 8
  store i32* %__result, i32** %__result.addr, align 8
  %0 = load i32*, i32** %__last.addr, align 8
  %1 = load i32*, i32** %__first.addr, align 8
  %sub.ptr.lhs.cast = ptrtoint i32* %0 to i64
  %sub.ptr.rhs.cast = ptrtoint i32* %1 to i64
  %sub.ptr.sub = sub i64 %sub.ptr.lhs.cast, %sub.ptr.rhs.cast
  %sub.ptr.div = sdiv exact i64 %sub.ptr.sub, 4
  store i64 %sub.ptr.div, i64* %_Num, align 8
  %2 = load i64, i64* %_Num, align 8
  %tobool = icmp ne i64 %2, 0
  br i1 %tobool, label %if.then, label %if.end

if.then:                                          ; preds = %entry
  %3 = load i32*, i32** %__result.addr, align 8
  %4 = bitcast i32* %3 to i8*
  %5 = load i32*, i32** %__first.addr, align 8
  %6 = bitcast i32* %5 to i8*
  %7 = load i64, i64* %_Num, align 8
  %mul = mul i64 4, %7
  call void @llvm.memmove.p0i8.p0i8.i64(i8* align 4 %4, i8* align 4 %6, i64 %mul, i1 false)
  br label %if.end

if.end:                                           ; preds = %if.then, %entry
  %8 = load i32*, i32** %__result.addr, align 8
  %9 = load i64, i64* %_Num, align 8
  %add.ptr = getelementptr inbounds i32, i32* %8, i64 %9
  ret i32* %add.ptr
}

; Function Attrs: argmemonly nounwind
declare void @llvm.memmove.p0i8.p0i8.i64(i8* nocapture, i8* nocapture readonly, i64, i1) #4

; Function Attrs: noinline nounwind uwtable
define linkonce_odr dso_local i32* @_ZSt12__miter_baseIPiET_S1_(i32* %__it) #5 comdat {
entry:
  %__it.addr = alloca i32*, align 8
  store i32* %__it, i32** %__it.addr, align 8
  %0 = load i32*, i32** %__it.addr, align 8
  ret i32* %0
}

; Function Attrs: noinline nounwind uwtable
define linkonce_odr dso_local i32* @_ZNKSt13move_iteratorIPiE4baseEv(%"class.std::move_iterator"* %this) #5 comdat align 2 {
entry:
  %this.addr = alloca %"class.std::move_iterator"*, align 8
  store %"class.std::move_iterator"* %this, %"class.std::move_iterator"** %this.addr, align 8
  %this1 = load %"class.std::move_iterator"*, %"class.std::move_iterator"** %this.addr, align 8
  %_M_current = getelementptr inbounds %"class.std::move_iterator", %"class.std::move_iterator"* %this1, i32 0, i32 0
  %0 = load i32*, i32** %_M_current, align 8
  ret i32* %0
}

; Function Attrs: noinline nounwind uwtable
define linkonce_odr dso_local dereferenceable(8) i32** @_ZSt4moveIRPiEONSt16remove_referenceIT_E4typeEOS3_(i32** dereferenceable(8) %__t) #5 comdat {
entry:
  %__t.addr = alloca i32**, align 8
  store i32** %__t, i32*** %__t.addr, align 8
  %0 = load i32**, i32*** %__t.addr, align 8
  ret i32** %0
}

; Function Attrs: noinline nounwind uwtable
define linkonce_odr dso_local void @_ZNSt13move_iteratorIPiEC2ES0_(%"class.std::move_iterator"* %this, i32* %__i) unnamed_addr #5 comdat align 2 {
entry:
  %this.addr = alloca %"class.std::move_iterator"*, align 8
  %__i.addr = alloca i32*, align 8
  store %"class.std::move_iterator"* %this, %"class.std::move_iterator"** %this.addr, align 8
  store i32* %__i, i32** %__i.addr, align 8
  %this1 = load %"class.std::move_iterator"*, %"class.std::move_iterator"** %this.addr, align 8
  %_M_current = getelementptr inbounds %"class.std::move_iterator", %"class.std::move_iterator"* %this1, i32 0, i32 0
  %call = call dereferenceable(8) i32** @_ZSt4moveIRPiEONSt16remove_referenceIT_E4typeEOS3_(i32** dereferenceable(8) %__i.addr) #3
  %0 = load i32*, i32** %call, align 8
  store i32* %0, i32** %_M_current, align 8
  ret void
}

; Function Attrs: noinline uwtable
define linkonce_odr dso_local i32* @_ZSt22__copy_move_backward_aILb1EPiS0_ET1_T0_S2_S1_(i32* %__first, i32* %__last, i32* %__result) #0 comdat {
entry:
  %__first.addr = alloca i32*, align 8
  %__last.addr = alloca i32*, align 8
  %__result.addr = alloca i32*, align 8
  store i32* %__first, i32** %__first.addr, align 8
  store i32* %__last, i32** %__last.addr, align 8
  store i32* %__result, i32** %__result.addr, align 8
  %0 = load i32*, i32** %__first.addr, align 8
  %call = call i32* @_ZSt12__niter_baseIPiET_S1_(i32* %0) #3
  %1 = load i32*, i32** %__last.addr, align 8
  %call1 = call i32* @_ZSt12__niter_baseIPiET_S1_(i32* %1) #3
  %2 = load i32*, i32** %__result.addr, align 8
  %call2 = call i32* @_ZSt12__niter_baseIPiET_S1_(i32* %2) #3
  %call3 = call i32* @_ZSt23__copy_move_backward_a1ILb1EPiS0_ET1_T0_S2_S1_(i32* %call, i32* %call1, i32* %call2)
  %call4 = call i32* @_ZSt12__niter_wrapIPiET_RKS1_S1_(i32** dereferenceable(8) %__result.addr, i32* %call3)
  ret i32* %call4
}

; Function Attrs: noinline uwtable
define linkonce_odr dso_local i32* @_ZSt23__copy_move_backward_a1ILb1EPiS0_ET1_T0_S2_S1_(i32* %__first, i32* %__last, i32* %__result) #0 comdat {
entry:
  %__first.addr = alloca i32*, align 8
  %__last.addr = alloca i32*, align 8
  %__result.addr = alloca i32*, align 8
  store i32* %__first, i32** %__first.addr, align 8
  store i32* %__last, i32** %__last.addr, align 8
  store i32* %__result, i32** %__result.addr, align 8
  %0 = load i32*, i32** %__first.addr, align 8
  %1 = load i32*, i32** %__last.addr, align 8
  %2 = load i32*, i32** %__result.addr, align 8
  %call = call i32* @_ZSt23__copy_move_backward_a2ILb1EPiS0_ET1_T0_S2_S1_(i32* %0, i32* %1, i32* %2)
  ret i32* %call
}

; Function Attrs: noinline uwtable
define linkonce_odr dso_local i32* @_ZSt23__copy_move_backward_a2ILb1EPiS0_ET1_T0_S2_S1_(i32* %__first, i32* %__last, i32* %__result) #0 comdat {
entry:
  %__first.addr = alloca i32*, align 8
  %__last.addr = alloca i32*, align 8
  %__result.addr = alloca i32*, align 8
  store i32* %__first, i32** %__first.addr, align 8
  store i32* %__last, i32** %__last.addr, align 8
  store i32* %__result, i32** %__result.addr, align 8
  %0 = load i32*, i32** %__first.addr, align 8
  %1 = load i32*, i32** %__last.addr, align 8
  %2 = load i32*, i32** %__result.addr, align 8
  %call = call i32* @_ZNSt20__copy_move_backwardILb1ELb1ESt26random_access_iterator_tagE13__copy_move_bIiEEPT_PKS3_S6_S4_(i32* %0, i32* %1, i32* %2)
  ret i32* %call
}

; Function Attrs: noinline nounwind uwtable
define linkonce_odr dso_local i32* @_ZNSt20__copy_move_backwardILb1ELb1ESt26random_access_iterator_tagE13__copy_move_bIiEEPT_PKS3_S6_S4_(i32* %__first, i32* %__last, i32* %__result) #5 comdat align 2 {
entry:
  %__first.addr = alloca i32*, align 8
  %__last.addr = alloca i32*, align 8
  %__result.addr = alloca i32*, align 8
  %_Num = alloca i64, align 8
  store i32* %__first, i32** %__first.addr, align 8
  store i32* %__last, i32** %__last.addr, align 8
  store i32* %__result, i32** %__result.addr, align 8
  %0 = load i32*, i32** %__last.addr, align 8
  %1 = load i32*, i32** %__first.addr, align 8
  %sub.ptr.lhs.cast = ptrtoint i32* %0 to i64
  %sub.ptr.rhs.cast = ptrtoint i32* %1 to i64
  %sub.ptr.sub = sub i64 %sub.ptr.lhs.cast, %sub.ptr.rhs.cast
  %sub.ptr.div = sdiv exact i64 %sub.ptr.sub, 4
  store i64 %sub.ptr.div, i64* %_Num, align 8
  %2 = load i64, i64* %_Num, align 8
  %tobool = icmp ne i64 %2, 0
  br i1 %tobool, label %if.then, label %if.end

if.then:                                          ; preds = %entry
  %3 = load i32*, i32** %__result.addr, align 8
  %4 = load i64, i64* %_Num, align 8
  %idx.neg = sub i64 0, %4
  %add.ptr = getelementptr inbounds i32, i32* %3, i64 %idx.neg
  %5 = bitcast i32* %add.ptr to i8*
  %6 = load i32*, i32** %__first.addr, align 8
  %7 = bitcast i32* %6 to i8*
  %8 = load i64, i64* %_Num, align 8
  %mul = mul i64 4, %8
  call void @llvm.memmove.p0i8.p0i8.i64(i8* align 4 %5, i8* align 4 %7, i64 %mul, i1 false)
  br label %if.end

if.end:                                           ; preds = %if.then, %entry
  %9 = load i32*, i32** %__result.addr, align 8
  %10 = load i64, i64* %_Num, align 8
  %idx.neg1 = sub i64 0, %10
  %add.ptr2 = getelementptr inbounds i32, i32* %9, i64 %idx.neg1
  ret i32* %add.ptr2
}

; Function Attrs: noinline uwtable
define linkonce_odr dso_local i32* @_ZSt13__copy_move_aILb0EPiN9__gnu_cxx17__normal_iteratorIS0_St6vectorIiSaIiEEEEET1_T0_S8_S7_(i32* %__first, i32* %__last, i32* %__result.coerce) #0 comdat {
entry:
  %retval = alloca %"class.__gnu_cxx::__normal_iterator", align 8
  %__result = alloca %"class.__gnu_cxx::__normal_iterator", align 8
  %__first.addr = alloca i32*, align 8
  %__last.addr = alloca i32*, align 8
  %agg.tmp = alloca %"class.__gnu_cxx::__normal_iterator", align 8
  %agg.tmp2 = alloca %"class.__gnu_cxx::__normal_iterator", align 8
  %coerce.dive = getelementptr inbounds %"class.__gnu_cxx::__normal_iterator", %"class.__gnu_cxx::__normal_iterator"* %__result, i32 0, i32 0
  store i32* %__result.coerce, i32** %coerce.dive, align 8
  store i32* %__first, i32** %__first.addr, align 8
  store i32* %__last, i32** %__last.addr, align 8
  %0 = bitcast %"class.__gnu_cxx::__normal_iterator"* %agg.tmp to i8*
  %1 = bitcast %"class.__gnu_cxx::__normal_iterator"* %__result to i8*
  call void @llvm.memcpy.p0i8.p0i8.i64(i8* align 8 %0, i8* align 8 %1, i64 8, i1 false)
  %2 = load i32*, i32** %__first.addr, align 8
  %call = call i32* @_ZSt12__niter_baseIPiET_S1_(i32* %2) #3
  %3 = load i32*, i32** %__last.addr, align 8
  %call1 = call i32* @_ZSt12__niter_baseIPiET_S1_(i32* %3) #3
  %4 = bitcast %"class.__gnu_cxx::__normal_iterator"* %agg.tmp2 to i8*
  %5 = bitcast %"class.__gnu_cxx::__normal_iterator"* %__result to i8*
  call void @llvm.memcpy.p0i8.p0i8.i64(i8* align 8 %4, i8* align 8 %5, i64 8, i1 false)
  %coerce.dive3 = getelementptr inbounds %"class.__gnu_cxx::__normal_iterator", %"class.__gnu_cxx::__normal_iterator"* %agg.tmp2, i32 0, i32 0
  %6 = load i32*, i32** %coerce.dive3, align 8
  %call4 = call i32* @_ZSt12__niter_baseIPiSt6vectorIiSaIiEEET_N9__gnu_cxx17__normal_iteratorIS4_T0_EE(i32* %6) #3
  %call5 = call i32* @_ZSt14__copy_move_a1ILb0EPiS0_ET1_T0_S2_S1_(i32* %call, i32* %call1, i32* %call4)
  %coerce.dive6 = getelementptr inbounds %"class.__gnu_cxx::__normal_iterator", %"class.__gnu_cxx::__normal_iterator"* %agg.tmp, i32 0, i32 0
  %7 = load i32*, i32** %coerce.dive6, align 8
  %call7 = call i32* @_ZSt12__niter_wrapIN9__gnu_cxx17__normal_iteratorIPiSt6vectorIiSaIiEEEES2_ET_S7_T0_(i32* %7, i32* %call5)
  %coerce.dive8 = getelementptr inbounds %"class.__gnu_cxx::__normal_iterator", %"class.__gnu_cxx::__normal_iterator"* %retval, i32 0, i32 0
  store i32* %call7, i32** %coerce.dive8, align 8
  %coerce.dive9 = getelementptr inbounds %"class.__gnu_cxx::__normal_iterator", %"class.__gnu_cxx::__normal_iterator"* %retval, i32 0, i32 0
  %8 = load i32*, i32** %coerce.dive9, align 8
  ret i32* %8
}

; Function Attrs: noinline nounwind uwtable
define linkonce_odr dso_local i32* @_ZSt12__niter_wrapIN9__gnu_cxx17__normal_iteratorIPiSt6vectorIiSaIiEEEES2_ET_S7_T0_(i32* %__from.coerce, i32* %__res) #5 comdat {
entry:
  %retval = alloca %"class.__gnu_cxx::__normal_iterator", align 8
  %__from = alloca %"class.__gnu_cxx::__normal_iterator", align 8
  %__res.addr = alloca i32*, align 8
  %agg.tmp = alloca %"class.__gnu_cxx::__normal_iterator", align 8
  %coerce.dive = getelementptr inbounds %"class.__gnu_cxx::__normal_iterator", %"class.__gnu_cxx::__normal_iterator"* %__from, i32 0, i32 0
  store i32* %__from.coerce, i32** %coerce.dive, align 8
  store i32* %__res, i32** %__res.addr, align 8
  %0 = load i32*, i32** %__res.addr, align 8
  %1 = bitcast %"class.__gnu_cxx::__normal_iterator"* %agg.tmp to i8*
  %2 = bitcast %"class.__gnu_cxx::__normal_iterator"* %__from to i8*
  call void @llvm.memcpy.p0i8.p0i8.i64(i8* align 8 %1, i8* align 8 %2, i64 8, i1 false)
  %coerce.dive1 = getelementptr inbounds %"class.__gnu_cxx::__normal_iterator", %"class.__gnu_cxx::__normal_iterator"* %agg.tmp, i32 0, i32 0
  %3 = load i32*, i32** %coerce.dive1, align 8
  %call = call i32* @_ZSt12__niter_baseIPiSt6vectorIiSaIiEEET_N9__gnu_cxx17__normal_iteratorIS4_T0_EE(i32* %3) #3
  %sub.ptr.lhs.cast = ptrtoint i32* %0 to i64
  %sub.ptr.rhs.cast = ptrtoint i32* %call to i64
  %sub.ptr.sub = sub i64 %sub.ptr.lhs.cast, %sub.ptr.rhs.cast
  %sub.ptr.div = sdiv exact i64 %sub.ptr.sub, 4
  %call2 = call i32* @_ZNK9__gnu_cxx17__normal_iteratorIPiSt6vectorIiSaIiEEEplEl(%"class.__gnu_cxx::__normal_iterator"* %__from, i64 %sub.ptr.div) #3
  %coerce.dive3 = getelementptr inbounds %"class.__gnu_cxx::__normal_iterator", %"class.__gnu_cxx::__normal_iterator"* %retval, i32 0, i32 0
  store i32* %call2, i32** %coerce.dive3, align 8
  %coerce.dive4 = getelementptr inbounds %"class.__gnu_cxx::__normal_iterator", %"class.__gnu_cxx::__normal_iterator"* %retval, i32 0, i32 0
  %4 = load i32*, i32** %coerce.dive4, align 8
  ret i32* %4
}

; Function Attrs: noinline uwtable
define linkonce_odr dso_local i32* @_ZSt14__copy_move_a1ILb0EPiS0_ET1_T0_S2_S1_(i32* %__first, i32* %__last, i32* %__result) #0 comdat {
entry:
  %__first.addr = alloca i32*, align 8
  %__last.addr = alloca i32*, align 8
  %__result.addr = alloca i32*, align 8
  store i32* %__first, i32** %__first.addr, align 8
  store i32* %__last, i32** %__last.addr, align 8
  store i32* %__result, i32** %__result.addr, align 8
  %0 = load i32*, i32** %__first.addr, align 8
  %1 = load i32*, i32** %__last.addr, align 8
  %2 = load i32*, i32** %__result.addr, align 8
  %call = call i32* @_ZSt14__copy_move_a2ILb0EPiS0_ET1_T0_S2_S1_(i32* %0, i32* %1, i32* %2)
  ret i32* %call
}

; Function Attrs: noinline nounwind uwtable
define linkonce_odr dso_local i32* @_ZSt12__niter_baseIPiSt6vectorIiSaIiEEET_N9__gnu_cxx17__normal_iteratorIS4_T0_EE(i32* %__it.coerce) #5 comdat {
entry:
  %__it = alloca %"class.__gnu_cxx::__normal_iterator", align 8
  %coerce.dive = getelementptr inbounds %"class.__gnu_cxx::__normal_iterator", %"class.__gnu_cxx::__normal_iterator"* %__it, i32 0, i32 0
  store i32* %__it.coerce, i32** %coerce.dive, align 8
  %call = call dereferenceable(8) i32** @_ZNK9__gnu_cxx17__normal_iteratorIPiSt6vectorIiSaIiEEE4baseEv(%"class.__gnu_cxx::__normal_iterator"* %__it) #3
  %0 = load i32*, i32** %call, align 8
  ret i32* %0
}

; Function Attrs: noinline uwtable
define linkonce_odr dso_local i32* @_ZSt14__copy_move_a2ILb0EPiS0_ET1_T0_S2_S1_(i32* %__first, i32* %__last, i32* %__result) #0 comdat {
entry:
  %__first.addr = alloca i32*, align 8
  %__last.addr = alloca i32*, align 8
  %__result.addr = alloca i32*, align 8
  store i32* %__first, i32** %__first.addr, align 8
  store i32* %__last, i32** %__last.addr, align 8
  store i32* %__result, i32** %__result.addr, align 8
  %0 = load i32*, i32** %__first.addr, align 8
  %1 = load i32*, i32** %__last.addr, align 8
  %2 = load i32*, i32** %__result.addr, align 8
  %call = call i32* @_ZNSt11__copy_moveILb0ELb1ESt26random_access_iterator_tagE8__copy_mIiEEPT_PKS3_S6_S4_(i32* %0, i32* %1, i32* %2)
  ret i32* %call
}

; Function Attrs: noinline nounwind uwtable
define linkonce_odr dso_local i32* @_ZNSt11__copy_moveILb0ELb1ESt26random_access_iterator_tagE8__copy_mIiEEPT_PKS3_S6_S4_(i32* %__first, i32* %__last, i32* %__result) #5 comdat align 2 {
entry:
  %__first.addr = alloca i32*, align 8
  %__last.addr = alloca i32*, align 8
  %__result.addr = alloca i32*, align 8
  %_Num = alloca i64, align 8
  store i32* %__first, i32** %__first.addr, align 8
  store i32* %__last, i32** %__last.addr, align 8
  store i32* %__result, i32** %__result.addr, align 8
  %0 = load i32*, i32** %__last.addr, align 8
  %1 = load i32*, i32** %__first.addr, align 8
  %sub.ptr.lhs.cast = ptrtoint i32* %0 to i64
  %sub.ptr.rhs.cast = ptrtoint i32* %1 to i64
  %sub.ptr.sub = sub i64 %sub.ptr.lhs.cast, %sub.ptr.rhs.cast
  %sub.ptr.div = sdiv exact i64 %sub.ptr.sub, 4
  store i64 %sub.ptr.div, i64* %_Num, align 8
  %2 = load i64, i64* %_Num, align 8
  %tobool = icmp ne i64 %2, 0
  br i1 %tobool, label %if.then, label %if.end

if.then:                                          ; preds = %entry
  %3 = load i32*, i32** %__result.addr, align 8
  %4 = bitcast i32* %3 to i8*
  %5 = load i32*, i32** %__first.addr, align 8
  %6 = bitcast i32* %5 to i8*
  %7 = load i64, i64* %_Num, align 8
  %mul = mul i64 4, %7
  call void @llvm.memmove.p0i8.p0i8.i64(i8* align 4 %4, i8* align 4 %6, i64 %mul, i1 false)
  br label %if.end

if.end:                                           ; preds = %if.then, %entry
  %8 = load i32*, i32** %__result.addr, align 8
  %9 = load i64, i64* %_Num, align 8
  %add.ptr = getelementptr inbounds i32, i32* %8, i64 %9
  ret i32* %add.ptr
}

; Function Attrs: noinline nounwind uwtable
define linkonce_odr dso_local void @_ZSt9__advanceIPilEvRT_T0_St26random_access_iterator_tag(i32** dereferenceable(8) %__i, i64 %__n) #5 comdat {
entry:
  %0 = alloca %"struct.std::random_access_iterator_tag", align 1
  %__i.addr = alloca i32**, align 8
  %__n.addr = alloca i64, align 8
  store i32** %__i, i32*** %__i.addr, align 8
  store i64 %__n, i64* %__n.addr, align 8
  br i1 false, label %land.lhs.true, label %if.else

land.lhs.true:                                    ; preds = %entry
  %1 = load i64, i64* %__n.addr, align 8
  %cmp = icmp eq i64 %1, 1
  br i1 %cmp, label %if.then, label %if.else

if.then:                                          ; preds = %land.lhs.true
  %2 = load i32**, i32*** %__i.addr, align 8
  %3 = load i32*, i32** %2, align 8
  %incdec.ptr = getelementptr inbounds i32, i32* %3, i32 1
  store i32* %incdec.ptr, i32** %2, align 8
  br label %if.end6

if.else:                                          ; preds = %land.lhs.true, %entry
  br i1 false, label %land.lhs.true1, label %if.else5

land.lhs.true1:                                   ; preds = %if.else
  %4 = load i64, i64* %__n.addr, align 8
  %cmp2 = icmp eq i64 %4, -1
  br i1 %cmp2, label %if.then3, label %if.else5

if.then3:                                         ; preds = %land.lhs.true1
  %5 = load i32**, i32*** %__i.addr, align 8
  %6 = load i32*, i32** %5, align 8
  %incdec.ptr4 = getelementptr inbounds i32, i32* %6, i32 -1
  store i32* %incdec.ptr4, i32** %5, align 8
  br label %if.end

if.else5:                                         ; preds = %land.lhs.true1, %if.else
  %7 = load i64, i64* %__n.addr, align 8
  %8 = load i32**, i32*** %__i.addr, align 8
  %9 = load i32*, i32** %8, align 8
  %add.ptr = getelementptr inbounds i32, i32* %9, i64 %7
  store i32* %add.ptr, i32** %8, align 8
  br label %if.end

if.end:                                           ; preds = %if.else5, %if.then3
  br label %if.end6

if.end6:                                          ; preds = %if.end, %if.then
  ret void
}

; Function Attrs: noinline uwtable
define linkonce_odr dso_local i32* @_ZSt18uninitialized_copyIPiS0_ET0_T_S2_S1_(i32* %__first, i32* %__last, i32* %__result) #0 comdat {
entry:
  %__first.addr = alloca i32*, align 8
  %__last.addr = alloca i32*, align 8
  %__result.addr = alloca i32*, align 8
  %__assignable = alloca i8, align 1
  store i32* %__first, i32** %__first.addr, align 8
  store i32* %__last, i32** %__last.addr, align 8
  store i32* %__result, i32** %__result.addr, align 8
  store i8 1, i8* %__assignable, align 1
  %0 = load i32*, i32** %__first.addr, align 8
  %1 = load i32*, i32** %__last.addr, align 8
  %2 = load i32*, i32** %__result.addr, align 8
  %call = call i32* @_ZNSt20__uninitialized_copyILb1EE13__uninit_copyIPiS2_EET0_T_S4_S3_(i32* %0, i32* %1, i32* %2)
  ret i32* %call
}

; Function Attrs: noinline uwtable
define linkonce_odr dso_local i32* @_ZNSt20__uninitialized_copyILb1EE13__uninit_copyIPiS2_EET0_T_S4_S3_(i32* %__first, i32* %__last, i32* %__result) #0 comdat align 2 {
entry:
  %__first.addr = alloca i32*, align 8
  %__last.addr = alloca i32*, align 8
  %__result.addr = alloca i32*, align 8
  store i32* %__first, i32** %__first.addr, align 8
  store i32* %__last, i32** %__last.addr, align 8
  store i32* %__result, i32** %__result.addr, align 8
  %0 = load i32*, i32** %__first.addr, align 8
  %1 = load i32*, i32** %__last.addr, align 8
  %2 = load i32*, i32** %__result.addr, align 8
  %call = call i32* @_ZSt4copyIPiS0_ET0_T_S2_S1_(i32* %0, i32* %1, i32* %2)
  ret i32* %call
}

; Function Attrs: noinline uwtable
define linkonce_odr dso_local i32* @_ZSt4copyIPiS0_ET0_T_S2_S1_(i32* %__first, i32* %__last, i32* %__result) #0 comdat {
entry:
  %__first.addr = alloca i32*, align 8
  %__last.addr = alloca i32*, align 8
  %__result.addr = alloca i32*, align 8
  store i32* %__first, i32** %__first.addr, align 8
  store i32* %__last, i32** %__last.addr, align 8
  store i32* %__result, i32** %__result.addr, align 8
  %0 = load i32*, i32** %__first.addr, align 8
  %call = call i32* @_ZSt12__miter_baseIPiET_S1_(i32* %0)
  %1 = load i32*, i32** %__last.addr, align 8
  %call1 = call i32* @_ZSt12__miter_baseIPiET_S1_(i32* %1)
  %2 = load i32*, i32** %__result.addr, align 8
  %call2 = call i32* @_ZSt13__copy_move_aILb0EPiS0_ET1_T0_S2_S1_(i32* %call, i32* %call1, i32* %2)
  ret i32* %call2
}

; Function Attrs: noinline uwtable
define linkonce_odr dso_local i32* @_ZSt13__copy_move_aILb0EPiS0_ET1_T0_S2_S1_(i32* %__first, i32* %__last, i32* %__result) #0 comdat {
entry:
  %__first.addr = alloca i32*, align 8
  %__last.addr = alloca i32*, align 8
  %__result.addr = alloca i32*, align 8
  store i32* %__first, i32** %__first.addr, align 8
  store i32* %__last, i32** %__last.addr, align 8
  store i32* %__result, i32** %__result.addr, align 8
  %0 = load i32*, i32** %__first.addr, align 8
  %call = call i32* @_ZSt12__niter_baseIPiET_S1_(i32* %0) #3
  %1 = load i32*, i32** %__last.addr, align 8
  %call1 = call i32* @_ZSt12__niter_baseIPiET_S1_(i32* %1) #3
  %2 = load i32*, i32** %__result.addr, align 8
  %call2 = call i32* @_ZSt12__niter_baseIPiET_S1_(i32* %2) #3
  %call3 = call i32* @_ZSt14__copy_move_a1ILb0EPiS0_ET1_T0_S2_S1_(i32* %call, i32* %call1, i32* %call2)
  %call4 = call i32* @_ZSt12__niter_wrapIPiET_RKS1_S1_(i32** dereferenceable(8) %__result.addr, i32* %call3)
  ret i32* %call4
}

; Function Attrs: noinline nounwind uwtable
define linkonce_odr dso_local i64 @_ZNKSt6vectorIiSaIiEE8max_sizeEv(%"class.std::vector"* %this) #5 comdat align 2 {
entry:
  %this.addr = alloca %"class.std::vector"*, align 8
  store %"class.std::vector"* %this, %"class.std::vector"** %this.addr, align 8
  %this1 = load %"class.std::vector"*, %"class.std::vector"** %this.addr, align 8
  %0 = bitcast %"class.std::vector"* %this1 to %"struct.std::_Vector_base"*
  %call = call dereferenceable(1) %"class.std::allocator"* @_ZNKSt12_Vector_baseIiSaIiEE19_M_get_Tp_allocatorEv(%"struct.std::_Vector_base"* %0) #3
  %call2 = call i64 @_ZNSt6vectorIiSaIiEE11_S_max_sizeERKS0_(%"class.std::allocator"* dereferenceable(1) %call) #3
  ret i64 %call2
}

; Function Attrs: noinline nounwind uwtable
define linkonce_odr dso_local i64 @_ZNKSt6vectorIiSaIiEE4sizeEv(%"class.std::vector"* %this) #5 comdat align 2 {
entry:
  %this.addr = alloca %"class.std::vector"*, align 8
  store %"class.std::vector"* %this, %"class.std::vector"** %this.addr, align 8
  %this1 = load %"class.std::vector"*, %"class.std::vector"** %this.addr, align 8
  %0 = bitcast %"class.std::vector"* %this1 to %"struct.std::_Vector_base"*
  %_M_impl = getelementptr inbounds %"struct.std::_Vector_base", %"struct.std::_Vector_base"* %0, i32 0, i32 0
  %1 = bitcast %"struct.std::_Vector_base<int, std::allocator<int> >::_Vector_impl"* %_M_impl to %"struct.std::_Vector_base<int, std::allocator<int> >::_Vector_impl_data"*
  %_M_finish = getelementptr inbounds %"struct.std::_Vector_base<int, std::allocator<int> >::_Vector_impl_data", %"struct.std::_Vector_base<int, std::allocator<int> >::_Vector_impl_data"* %1, i32 0, i32 1
  %2 = load i32*, i32** %_M_finish, align 8
  %3 = bitcast %"class.std::vector"* %this1 to %"struct.std::_Vector_base"*
  %_M_impl2 = getelementptr inbounds %"struct.std::_Vector_base", %"struct.std::_Vector_base"* %3, i32 0, i32 0
  %4 = bitcast %"struct.std::_Vector_base<int, std::allocator<int> >::_Vector_impl"* %_M_impl2 to %"struct.std::_Vector_base<int, std::allocator<int> >::_Vector_impl_data"*
  %_M_start = getelementptr inbounds %"struct.std::_Vector_base<int, std::allocator<int> >::_Vector_impl_data", %"struct.std::_Vector_base<int, std::allocator<int> >::_Vector_impl_data"* %4, i32 0, i32 0
  %5 = load i32*, i32** %_M_start, align 8
  %sub.ptr.lhs.cast = ptrtoint i32* %2 to i64
  %sub.ptr.rhs.cast = ptrtoint i32* %5 to i64
  %sub.ptr.sub = sub i64 %sub.ptr.lhs.cast, %sub.ptr.rhs.cast
  %sub.ptr.div = sdiv exact i64 %sub.ptr.sub, 4
  ret i64 %sub.ptr.div
}

; Function Attrs: noreturn
declare dso_local void @_ZSt20__throw_length_errorPKc(i8*) #10

; Function Attrs: noinline nounwind uwtable
define linkonce_odr dso_local dereferenceable(8) i64* @_ZSt3maxImERKT_S2_S2_(i64* dereferenceable(8) %__a, i64* dereferenceable(8) %__b) #5 comdat {
entry:
  %retval = alloca i64*, align 8
  %__a.addr = alloca i64*, align 8
  %__b.addr = alloca i64*, align 8
  store i64* %__a, i64** %__a.addr, align 8
  store i64* %__b, i64** %__b.addr, align 8
  %0 = load i64*, i64** %__a.addr, align 8
  %1 = load i64, i64* %0, align 8
  %2 = load i64*, i64** %__b.addr, align 8
  %3 = load i64, i64* %2, align 8
  %cmp = icmp ult i64 %1, %3
  br i1 %cmp, label %if.then, label %if.end

if.then:                                          ; preds = %entry
  %4 = load i64*, i64** %__b.addr, align 8
  store i64* %4, i64** %retval, align 8
  br label %return

if.end:                                           ; preds = %entry
  %5 = load i64*, i64** %__a.addr, align 8
  store i64* %5, i64** %retval, align 8
  br label %return

return:                                           ; preds = %if.end, %if.then
  %6 = load i64*, i64** %retval, align 8
  ret i64* %6
}

; Function Attrs: noinline nounwind uwtable
define linkonce_odr dso_local i64 @_ZNSt6vectorIiSaIiEE11_S_max_sizeERKS0_(%"class.std::allocator"* dereferenceable(1) %__a) #5 comdat align 2 personality i8* bitcast (i32 (...)* @__gxx_personality_v0 to i8*) {
entry:
  %__a.addr = alloca %"class.std::allocator"*, align 8
  %__diffmax = alloca i64, align 8
  %__allocmax = alloca i64, align 8
  store %"class.std::allocator"* %__a, %"class.std::allocator"** %__a.addr, align 8
  store i64 2305843009213693951, i64* %__diffmax, align 8
  %0 = load %"class.std::allocator"*, %"class.std::allocator"** %__a.addr, align 8
  %call = call i64 @_ZNSt16allocator_traitsISaIiEE8max_sizeERKS0_(%"class.std::allocator"* dereferenceable(1) %0) #3
  store i64 %call, i64* %__allocmax, align 8
  %call1 = invoke dereferenceable(8) i64* @_ZSt3minImERKT_S2_S2_(i64* dereferenceable(8) %__diffmax, i64* dereferenceable(8) %__allocmax)
          to label %invoke.cont unwind label %terminate.lpad

invoke.cont:                                      ; preds = %entry
  %1 = load i64, i64* %call1, align 8
  ret i64 %1

terminate.lpad:                                   ; preds = %entry
  %2 = landingpad { i8*, i32 }
          catch i8* null
  %3 = extractvalue { i8*, i32 } %2, 0
  call void @__clang_call_terminate(i8* %3) #12
  unreachable
}

; Function Attrs: noinline nounwind uwtable
define linkonce_odr dso_local dereferenceable(1) %"class.std::allocator"* @_ZNKSt12_Vector_baseIiSaIiEE19_M_get_Tp_allocatorEv(%"struct.std::_Vector_base"* %this) #5 comdat align 2 {
entry:
  %this.addr = alloca %"struct.std::_Vector_base"*, align 8
  store %"struct.std::_Vector_base"* %this, %"struct.std::_Vector_base"** %this.addr, align 8
  %this1 = load %"struct.std::_Vector_base"*, %"struct.std::_Vector_base"** %this.addr, align 8
  %_M_impl = getelementptr inbounds %"struct.std::_Vector_base", %"struct.std::_Vector_base"* %this1, i32 0, i32 0
  %0 = bitcast %"struct.std::_Vector_base<int, std::allocator<int> >::_Vector_impl"* %_M_impl to %"class.std::allocator"*
  ret %"class.std::allocator"* %0
}

; Function Attrs: noinline nounwind uwtable
define linkonce_odr dso_local i64 @_ZNSt16allocator_traitsISaIiEE8max_sizeERKS0_(%"class.std::allocator"* dereferenceable(1) %__a) #5 comdat align 2 {
entry:
  %__a.addr = alloca %"class.std::allocator"*, align 8
  store %"class.std::allocator"* %__a, %"class.std::allocator"** %__a.addr, align 8
  %0 = load %"class.std::allocator"*, %"class.std::allocator"** %__a.addr, align 8
  %1 = bitcast %"class.std::allocator"* %0 to %"class.__gnu_cxx::new_allocator"*
  %call = call i64 @_ZNK9__gnu_cxx13new_allocatorIiE8max_sizeEv(%"class.__gnu_cxx::new_allocator"* %1) #3
  ret i64 %call
}

; Function Attrs: noinline nounwind uwtable
define linkonce_odr dso_local dereferenceable(8) i64* @_ZSt3minImERKT_S2_S2_(i64* dereferenceable(8) %__a, i64* dereferenceable(8) %__b) #5 comdat {
entry:
  %retval = alloca i64*, align 8
  %__a.addr = alloca i64*, align 8
  %__b.addr = alloca i64*, align 8
  store i64* %__a, i64** %__a.addr, align 8
  store i64* %__b, i64** %__b.addr, align 8
  %0 = load i64*, i64** %__b.addr, align 8
  %1 = load i64, i64* %0, align 8
  %2 = load i64*, i64** %__a.addr, align 8
  %3 = load i64, i64* %2, align 8
  %cmp = icmp ult i64 %1, %3
  br i1 %cmp, label %if.then, label %if.end

if.then:                                          ; preds = %entry
  %4 = load i64*, i64** %__b.addr, align 8
  store i64* %4, i64** %retval, align 8
  br label %return

if.end:                                           ; preds = %entry
  %5 = load i64*, i64** %__a.addr, align 8
  store i64* %5, i64** %retval, align 8
  br label %return

return:                                           ; preds = %if.end, %if.then
  %6 = load i64*, i64** %retval, align 8
  ret i64* %6
}

; Function Attrs: noinline nounwind uwtable
define linkonce_odr dso_local i64 @_ZNK9__gnu_cxx13new_allocatorIiE8max_sizeEv(%"class.__gnu_cxx::new_allocator"* %this) #5 comdat align 2 {
entry:
  %this.addr = alloca %"class.__gnu_cxx::new_allocator"*, align 8
  store %"class.__gnu_cxx::new_allocator"* %this, %"class.__gnu_cxx::new_allocator"** %this.addr, align 8
  %this1 = load %"class.__gnu_cxx::new_allocator"*, %"class.__gnu_cxx::new_allocator"** %this.addr, align 8
  %call = call i64 @_ZNK9__gnu_cxx13new_allocatorIiE11_M_max_sizeEv(%"class.__gnu_cxx::new_allocator"* %this1) #3
  ret i64 %call
}

; Function Attrs: noinline nounwind uwtable
define linkonce_odr dso_local i64 @_ZNK9__gnu_cxx13new_allocatorIiE11_M_max_sizeEv(%"class.__gnu_cxx::new_allocator"* %this) #5 comdat align 2 {
entry:
  %this.addr = alloca %"class.__gnu_cxx::new_allocator"*, align 8
  store %"class.__gnu_cxx::new_allocator"* %this, %"class.__gnu_cxx::new_allocator"** %this.addr, align 8
  %this1 = load %"class.__gnu_cxx::new_allocator"*, %"class.__gnu_cxx::new_allocator"** %this.addr, align 8
  ret i64 2305843009213693951
}

; Function Attrs: noinline uwtable
define linkonce_odr dso_local i32* @_ZNSt16allocator_traitsISaIiEE8allocateERS0_m(%"class.std::allocator"* dereferenceable(1) %__a, i64 %__n) #0 comdat align 2 {
entry:
  %__a.addr = alloca %"class.std::allocator"*, align 8
  %__n.addr = alloca i64, align 8
  store %"class.std::allocator"* %__a, %"class.std::allocator"** %__a.addr, align 8
  store i64 %__n, i64* %__n.addr, align 8
  %0 = load %"class.std::allocator"*, %"class.std::allocator"** %__a.addr, align 8
  %1 = bitcast %"class.std::allocator"* %0 to %"class.__gnu_cxx::new_allocator"*
  %2 = load i64, i64* %__n.addr, align 8
  %call = call i32* @_ZN9__gnu_cxx13new_allocatorIiE8allocateEmPKv(%"class.__gnu_cxx::new_allocator"* %1, i64 %2, i8* null)
  ret i32* %call
}

; Function Attrs: noinline uwtable
define linkonce_odr dso_local i32* @_ZN9__gnu_cxx13new_allocatorIiE8allocateEmPKv(%"class.__gnu_cxx::new_allocator"* %this, i64 %__n, i8*) #0 comdat align 2 {
entry:
  %this.addr = alloca %"class.__gnu_cxx::new_allocator"*, align 8
  %__n.addr = alloca i64, align 8
  %.addr = alloca i8*, align 8
  store %"class.__gnu_cxx::new_allocator"* %this, %"class.__gnu_cxx::new_allocator"** %this.addr, align 8
  store i64 %__n, i64* %__n.addr, align 8
  store i8* %0, i8** %.addr, align 8
  %this1 = load %"class.__gnu_cxx::new_allocator"*, %"class.__gnu_cxx::new_allocator"** %this.addr, align 8
  %1 = load i64, i64* %__n.addr, align 8
  %call = call i64 @_ZNK9__gnu_cxx13new_allocatorIiE11_M_max_sizeEv(%"class.__gnu_cxx::new_allocator"* %this1) #3
  %cmp = icmp ugt i64 %1, %call
  br i1 %cmp, label %if.then, label %if.end

if.then:                                          ; preds = %entry
  call void @_ZSt17__throw_bad_allocv() #13
  unreachable

if.end:                                           ; preds = %entry
  %2 = load i64, i64* %__n.addr, align 8
  %mul = mul i64 %2, 4
  %call2 = call i8* @_Znwm(i64 %mul)
  %3 = bitcast i8* %call2 to i32*
  ret i32* %3
}

; Function Attrs: noreturn
declare dso_local void @_ZSt17__throw_bad_allocv() #10

; Function Attrs: nobuiltin
declare dso_local noalias i8* @_Znwm(i64) #11

; Function Attrs: noinline uwtable
define linkonce_odr dso_local i32* @_ZSt32__make_move_if_noexcept_iteratorIiSt13move_iteratorIPiEET0_PT_(i32* %__i) #0 comdat {
entry:
  %retval = alloca %"class.std::move_iterator", align 8
  %__i.addr = alloca i32*, align 8
  store i32* %__i, i32** %__i.addr, align 8
  %0 = load i32*, i32** %__i.addr, align 8
  call void @_ZNSt13move_iteratorIPiEC2ES0_(%"class.std::move_iterator"* %retval, i32* %0)
  %coerce.dive = getelementptr inbounds %"class.std::move_iterator", %"class.std::move_iterator"* %retval, i32 0, i32 0
  %1 = load i32*, i32** %coerce.dive, align 8
  ret i32* %1
}

; Function Attrs: noinline nounwind uwtable
define linkonce_odr dso_local void @_ZN9__gnu_cxx17__normal_iteratorIPiSt6vectorIiSaIiEEEC2ERKS1_(%"class.__gnu_cxx::__normal_iterator"* %this, i32** dereferenceable(8) %__i) unnamed_addr #5 comdat align 2 {
entry:
  %this.addr = alloca %"class.__gnu_cxx::__normal_iterator"*, align 8
  %__i.addr = alloca i32**, align 8
  store %"class.__gnu_cxx::__normal_iterator"* %this, %"class.__gnu_cxx::__normal_iterator"** %this.addr, align 8
  store i32** %__i, i32*** %__i.addr, align 8
  %this1 = load %"class.__gnu_cxx::__normal_iterator"*, %"class.__gnu_cxx::__normal_iterator"** %this.addr, align 8
  %_M_current = getelementptr inbounds %"class.__gnu_cxx::__normal_iterator", %"class.__gnu_cxx::__normal_iterator"* %this1, i32 0, i32 0
  %0 = load i32**, i32*** %__i.addr, align 8
  %1 = load i32*, i32** %0, align 8
  store i32* %1, i32** %_M_current, align 8
  ret void
}

; Function Attrs: noinline nounwind uwtable
define linkonce_odr dso_local dereferenceable(1) %"struct.std::greater"* @_ZSt4moveIRSt7greaterIiEEONSt16remove_referenceIT_E4typeEOS4_(%"struct.std::greater"* dereferenceable(1) %__t) #5 comdat {
entry:
  %__t.addr = alloca %"struct.std::greater"*, align 8
  store %"struct.std::greater"* %__t, %"struct.std::greater"** %__t.addr, align 8
  %0 = load %"struct.std::greater"*, %"struct.std::greater"** %__t.addr, align 8
  ret %"struct.std::greater"* %0
}

; Function Attrs: noinline nounwind uwtable
define linkonce_odr dso_local void @_ZN9__gnu_cxx5__ops15_Iter_comp_iterISt7greaterIiEEC2ES3_(%"struct.__gnu_cxx::__ops::_Iter_comp_iter"* %this) unnamed_addr #5 comdat align 2 {
entry:
  %__comp = alloca %"struct.std::greater", align 1
  %this.addr = alloca %"struct.__gnu_cxx::__ops::_Iter_comp_iter"*, align 8
  store %"struct.__gnu_cxx::__ops::_Iter_comp_iter"* %this, %"struct.__gnu_cxx::__ops::_Iter_comp_iter"** %this.addr, align 8
  %this1 = load %"struct.__gnu_cxx::__ops::_Iter_comp_iter"*, %"struct.__gnu_cxx::__ops::_Iter_comp_iter"** %this.addr, align 8
  %_M_comp = getelementptr inbounds %"struct.__gnu_cxx::__ops::_Iter_comp_iter", %"struct.__gnu_cxx::__ops::_Iter_comp_iter"* %this1, i32 0, i32 0
  %call = call dereferenceable(1) %"struct.std::greater"* @_ZSt4moveIRSt7greaterIiEEONSt16remove_referenceIT_E4typeEOS4_(%"struct.std::greater"* dereferenceable(1) %__comp) #3
  ret void
}

; Function Attrs: noinline uwtable
define linkonce_odr dso_local void @_ZSt11__make_heapIN9__gnu_cxx17__normal_iteratorIPiSt6vectorIiSaIiEEEENS0_5__ops15_Iter_comp_iterISt7greaterIiEEEEvT_SC_RT0_(i32* %__first.coerce, i32* %__last.coerce, %"struct.__gnu_cxx::__ops::_Iter_comp_iter"* dereferenceable(1) %__comp) #0 comdat {
entry:
  %__first = alloca %"class.__gnu_cxx::__normal_iterator", align 8
  %__last = alloca %"class.__gnu_cxx::__normal_iterator", align 8
  %__comp.addr = alloca %"struct.__gnu_cxx::__ops::_Iter_comp_iter"*, align 8
  %__len = alloca i64, align 8
  %__parent = alloca i64, align 8
  %__value = alloca i32, align 4
  %ref.tmp = alloca %"class.__gnu_cxx::__normal_iterator", align 8
  %agg.tmp = alloca %"class.__gnu_cxx::__normal_iterator", align 8
  %agg.tmp8 = alloca %"struct.__gnu_cxx::__ops::_Iter_comp_iter", align 1
  %coerce.dive = getelementptr inbounds %"class.__gnu_cxx::__normal_iterator", %"class.__gnu_cxx::__normal_iterator"* %__first, i32 0, i32 0
  store i32* %__first.coerce, i32** %coerce.dive, align 8
  %coerce.dive1 = getelementptr inbounds %"class.__gnu_cxx::__normal_iterator", %"class.__gnu_cxx::__normal_iterator"* %__last, i32 0, i32 0
  store i32* %__last.coerce, i32** %coerce.dive1, align 8
  store %"struct.__gnu_cxx::__ops::_Iter_comp_iter"* %__comp, %"struct.__gnu_cxx::__ops::_Iter_comp_iter"** %__comp.addr, align 8
  %call = call i64 @_ZN9__gnu_cxxmiIPiSt6vectorIiSaIiEEEENS_17__normal_iteratorIT_T0_E15difference_typeERKS8_SB_(%"class.__gnu_cxx::__normal_iterator"* dereferenceable(8) %__last, %"class.__gnu_cxx::__normal_iterator"* dereferenceable(8) %__first) #3
  %cmp = icmp slt i64 %call, 2
  br i1 %cmp, label %if.then, label %if.end

if.then:                                          ; preds = %entry
  br label %return

if.end:                                           ; preds = %entry
  %call2 = call i64 @_ZN9__gnu_cxxmiIPiSt6vectorIiSaIiEEEENS_17__normal_iteratorIT_T0_E15difference_typeERKS8_SB_(%"class.__gnu_cxx::__normal_iterator"* dereferenceable(8) %__last, %"class.__gnu_cxx::__normal_iterator"* dereferenceable(8) %__first) #3
  store i64 %call2, i64* %__len, align 8
  %0 = load i64, i64* %__len, align 8
  %sub = sub nsw i64 %0, 2
  %div = sdiv i64 %sub, 2
  store i64 %div, i64* %__parent, align 8
  br label %while.body

while.body:                                       ; preds = %if.end, %if.end12
  %1 = load i64, i64* %__parent, align 8
  %call3 = call i32* @_ZNK9__gnu_cxx17__normal_iteratorIPiSt6vectorIiSaIiEEEplEl(%"class.__gnu_cxx::__normal_iterator"* %__first, i64 %1) #3
  %coerce.dive4 = getelementptr inbounds %"class.__gnu_cxx::__normal_iterator", %"class.__gnu_cxx::__normal_iterator"* %ref.tmp, i32 0, i32 0
  store i32* %call3, i32** %coerce.dive4, align 8
  %call5 = call dereferenceable(4) i32* @_ZNK9__gnu_cxx17__normal_iteratorIPiSt6vectorIiSaIiEEEdeEv(%"class.__gnu_cxx::__normal_iterator"* %ref.tmp) #3
  %call6 = call dereferenceable(4) i32* @_ZSt4moveIRiEONSt16remove_referenceIT_E4typeEOS2_(i32* dereferenceable(4) %call5) #3
  %2 = load i32, i32* %call6, align 4
  store i32 %2, i32* %__value, align 4
  %3 = bitcast %"class.__gnu_cxx::__normal_iterator"* %agg.tmp to i8*
  %4 = bitcast %"class.__gnu_cxx::__normal_iterator"* %__first to i8*
  call void @llvm.memcpy.p0i8.p0i8.i64(i8* align 8 %3, i8* align 8 %4, i64 8, i1 false)
  %5 = load i64, i64* %__parent, align 8
  %6 = load i64, i64* %__len, align 8
  %call7 = call dereferenceable(4) i32* @_ZSt4moveIRiEONSt16remove_referenceIT_E4typeEOS2_(i32* dereferenceable(4) %__value) #3
  %7 = load i32, i32* %call7, align 4
  %8 = load %"struct.__gnu_cxx::__ops::_Iter_comp_iter"*, %"struct.__gnu_cxx::__ops::_Iter_comp_iter"** %__comp.addr, align 8
  %9 = bitcast %"struct.__gnu_cxx::__ops::_Iter_comp_iter"* %agg.tmp8 to i8*
  %10 = bitcast %"struct.__gnu_cxx::__ops::_Iter_comp_iter"* %8 to i8*
  call void @llvm.memcpy.p0i8.p0i8.i64(i8* align 1 %9, i8* align 1 %10, i64 1, i1 false)
  %coerce.dive9 = getelementptr inbounds %"class.__gnu_cxx::__normal_iterator", %"class.__gnu_cxx::__normal_iterator"* %agg.tmp, i32 0, i32 0
  %11 = load i32*, i32** %coerce.dive9, align 8
  call void @_ZSt13__adjust_heapIN9__gnu_cxx17__normal_iteratorIPiSt6vectorIiSaIiEEEEliNS0_5__ops15_Iter_comp_iterISt7greaterIiEEEEvT_T0_SD_T1_T2_(i32* %11, i64 %5, i64 %6, i32 %7)
  %12 = load i64, i64* %__parent, align 8
  %cmp10 = icmp eq i64 %12, 0
  br i1 %cmp10, label %if.then11, label %if.end12

if.then11:                                        ; preds = %while.body
  br label %return

if.end12:                                         ; preds = %while.body
  %13 = load i64, i64* %__parent, align 8
  %dec = add nsw i64 %13, -1
  store i64 %dec, i64* %__parent, align 8
  br label %while.body

return:                                           ; preds = %if.then11, %if.then
  ret void
}

; Function Attrs: noinline nounwind uwtable
define linkonce_odr dso_local dereferenceable(4) i32* @_ZSt4moveIRiEONSt16remove_referenceIT_E4typeEOS2_(i32* dereferenceable(4) %__t) #5 comdat {
entry:
  %__t.addr = alloca i32*, align 8
  store i32* %__t, i32** %__t.addr, align 8
  %0 = load i32*, i32** %__t.addr, align 8
  ret i32* %0
}

; Function Attrs: noinline nounwind uwtable
define linkonce_odr dso_local dereferenceable(4) i32* @_ZNK9__gnu_cxx17__normal_iteratorIPiSt6vectorIiSaIiEEEdeEv(%"class.__gnu_cxx::__normal_iterator"* %this) #5 comdat align 2 {
entry:
  %this.addr = alloca %"class.__gnu_cxx::__normal_iterator"*, align 8
  store %"class.__gnu_cxx::__normal_iterator"* %this, %"class.__gnu_cxx::__normal_iterator"** %this.addr, align 8
  %this1 = load %"class.__gnu_cxx::__normal_iterator"*, %"class.__gnu_cxx::__normal_iterator"** %this.addr, align 8
  %_M_current = getelementptr inbounds %"class.__gnu_cxx::__normal_iterator", %"class.__gnu_cxx::__normal_iterator"* %this1, i32 0, i32 0
  %0 = load i32*, i32** %_M_current, align 8
  ret i32* %0
}

; Function Attrs: noinline uwtable
define linkonce_odr dso_local void @_ZSt13__adjust_heapIN9__gnu_cxx17__normal_iteratorIPiSt6vectorIiSaIiEEEEliNS0_5__ops15_Iter_comp_iterISt7greaterIiEEEEvT_T0_SD_T1_T2_(i32* %__first.coerce, i64 %__holeIndex, i64 %__len, i32 %__value) #0 comdat {
entry:
  %__first = alloca %"class.__gnu_cxx::__normal_iterator", align 8
  %__comp = alloca %"struct.__gnu_cxx::__ops::_Iter_comp_iter", align 1
  %__holeIndex.addr = alloca i64, align 8
  %__len.addr = alloca i64, align 8
  %__value.addr = alloca i32, align 4
  %__topIndex = alloca i64, align 8
  %__secondChild = alloca i64, align 8
  %agg.tmp = alloca %"class.__gnu_cxx::__normal_iterator", align 8
  %agg.tmp2 = alloca %"class.__gnu_cxx::__normal_iterator", align 8
  %ref.tmp = alloca %"class.__gnu_cxx::__normal_iterator", align 8
  %ref.tmp13 = alloca %"class.__gnu_cxx::__normal_iterator", align 8
  %ref.tmp24 = alloca %"class.__gnu_cxx::__normal_iterator", align 8
  %ref.tmp30 = alloca %"class.__gnu_cxx::__normal_iterator", align 8
  %__cmp = alloca %"struct.__gnu_cxx::__ops::_Iter_comp_val", align 1
  %agg.tmp37 = alloca %"class.__gnu_cxx::__normal_iterator", align 8
  %coerce.dive = getelementptr inbounds %"class.__gnu_cxx::__normal_iterator", %"class.__gnu_cxx::__normal_iterator"* %__first, i32 0, i32 0
  store i32* %__first.coerce, i32** %coerce.dive, align 8
  store i64 %__holeIndex, i64* %__holeIndex.addr, align 8
  store i64 %__len, i64* %__len.addr, align 8
  store i32 %__value, i32* %__value.addr, align 4
  %0 = load i64, i64* %__holeIndex.addr, align 8
  store i64 %0, i64* %__topIndex, align 8
  %1 = load i64, i64* %__holeIndex.addr, align 8
  store i64 %1, i64* %__secondChild, align 8
  br label %while.cond

while.cond:                                       ; preds = %if.end, %entry
  %2 = load i64, i64* %__secondChild, align 8
  %3 = load i64, i64* %__len.addr, align 8
  %sub = sub nsw i64 %3, 1
  %div = sdiv i64 %sub, 2
  %cmp = icmp slt i64 %2, %div
  br i1 %cmp, label %while.body, label %while.end

while.body:                                       ; preds = %while.cond
  %4 = load i64, i64* %__secondChild, align 8
  %add = add nsw i64 %4, 1
  %mul = mul nsw i64 2, %add
  store i64 %mul, i64* %__secondChild, align 8
  %5 = load i64, i64* %__secondChild, align 8
  %call = call i32* @_ZNK9__gnu_cxx17__normal_iteratorIPiSt6vectorIiSaIiEEEplEl(%"class.__gnu_cxx::__normal_iterator"* %__first, i64 %5) #3
  %coerce.dive1 = getelementptr inbounds %"class.__gnu_cxx::__normal_iterator", %"class.__gnu_cxx::__normal_iterator"* %agg.tmp, i32 0, i32 0
  store i32* %call, i32** %coerce.dive1, align 8
  %6 = load i64, i64* %__secondChild, align 8
  %sub3 = sub nsw i64 %6, 1
  %call4 = call i32* @_ZNK9__gnu_cxx17__normal_iteratorIPiSt6vectorIiSaIiEEEplEl(%"class.__gnu_cxx::__normal_iterator"* %__first, i64 %sub3) #3
  %coerce.dive5 = getelementptr inbounds %"class.__gnu_cxx::__normal_iterator", %"class.__gnu_cxx::__normal_iterator"* %agg.tmp2, i32 0, i32 0
  store i32* %call4, i32** %coerce.dive5, align 8
  %coerce.dive6 = getelementptr inbounds %"class.__gnu_cxx::__normal_iterator", %"class.__gnu_cxx::__normal_iterator"* %agg.tmp, i32 0, i32 0
  %7 = load i32*, i32** %coerce.dive6, align 8
  %coerce.dive7 = getelementptr inbounds %"class.__gnu_cxx::__normal_iterator", %"class.__gnu_cxx::__normal_iterator"* %agg.tmp2, i32 0, i32 0
  %8 = load i32*, i32** %coerce.dive7, align 8
  %call8 = call zeroext i1 @_ZN9__gnu_cxx5__ops15_Iter_comp_iterISt7greaterIiEEclINS_17__normal_iteratorIPiSt6vectorIiSaIiEEEESB_EEbT_T0_(%"struct.__gnu_cxx::__ops::_Iter_comp_iter"* %__comp, i32* %7, i32* %8)
  br i1 %call8, label %if.then, label %if.end

if.then:                                          ; preds = %while.body
  %9 = load i64, i64* %__secondChild, align 8
  %dec = add nsw i64 %9, -1
  store i64 %dec, i64* %__secondChild, align 8
  br label %if.end

if.end:                                           ; preds = %if.then, %while.body
  %10 = load i64, i64* %__secondChild, align 8
  %call9 = call i32* @_ZNK9__gnu_cxx17__normal_iteratorIPiSt6vectorIiSaIiEEEplEl(%"class.__gnu_cxx::__normal_iterator"* %__first, i64 %10) #3
  %coerce.dive10 = getelementptr inbounds %"class.__gnu_cxx::__normal_iterator", %"class.__gnu_cxx::__normal_iterator"* %ref.tmp, i32 0, i32 0
  store i32* %call9, i32** %coerce.dive10, align 8
  %call11 = call dereferenceable(4) i32* @_ZNK9__gnu_cxx17__normal_iteratorIPiSt6vectorIiSaIiEEEdeEv(%"class.__gnu_cxx::__normal_iterator"* %ref.tmp) #3
  %call12 = call dereferenceable(4) i32* @_ZSt4moveIRiEONSt16remove_referenceIT_E4typeEOS2_(i32* dereferenceable(4) %call11) #3
  %11 = load i32, i32* %call12, align 4
  %12 = load i64, i64* %__holeIndex.addr, align 8
  %call14 = call i32* @_ZNK9__gnu_cxx17__normal_iteratorIPiSt6vectorIiSaIiEEEplEl(%"class.__gnu_cxx::__normal_iterator"* %__first, i64 %12) #3
  %coerce.dive15 = getelementptr inbounds %"class.__gnu_cxx::__normal_iterator", %"class.__gnu_cxx::__normal_iterator"* %ref.tmp13, i32 0, i32 0
  store i32* %call14, i32** %coerce.dive15, align 8
  %call16 = call dereferenceable(4) i32* @_ZNK9__gnu_cxx17__normal_iteratorIPiSt6vectorIiSaIiEEEdeEv(%"class.__gnu_cxx::__normal_iterator"* %ref.tmp13) #3
  store i32 %11, i32* %call16, align 4
  %13 = load i64, i64* %__secondChild, align 8
  store i64 %13, i64* %__holeIndex.addr, align 8
  br label %while.cond

while.end:                                        ; preds = %while.cond
  %14 = load i64, i64* %__len.addr, align 8
  %and = and i64 %14, 1
  %cmp17 = icmp eq i64 %and, 0
  br i1 %cmp17, label %land.lhs.true, label %if.end35

land.lhs.true:                                    ; preds = %while.end
  %15 = load i64, i64* %__secondChild, align 8
  %16 = load i64, i64* %__len.addr, align 8
  %sub18 = sub nsw i64 %16, 2
  %div19 = sdiv i64 %sub18, 2
  %cmp20 = icmp eq i64 %15, %div19
  br i1 %cmp20, label %if.then21, label %if.end35

if.then21:                                        ; preds = %land.lhs.true
  %17 = load i64, i64* %__secondChild, align 8
  %add22 = add nsw i64 %17, 1
  %mul23 = mul nsw i64 2, %add22
  store i64 %mul23, i64* %__secondChild, align 8
  %18 = load i64, i64* %__secondChild, align 8
  %sub25 = sub nsw i64 %18, 1
  %call26 = call i32* @_ZNK9__gnu_cxx17__normal_iteratorIPiSt6vectorIiSaIiEEEplEl(%"class.__gnu_cxx::__normal_iterator"* %__first, i64 %sub25) #3
  %coerce.dive27 = getelementptr inbounds %"class.__gnu_cxx::__normal_iterator", %"class.__gnu_cxx::__normal_iterator"* %ref.tmp24, i32 0, i32 0
  store i32* %call26, i32** %coerce.dive27, align 8
  %call28 = call dereferenceable(4) i32* @_ZNK9__gnu_cxx17__normal_iteratorIPiSt6vectorIiSaIiEEEdeEv(%"class.__gnu_cxx::__normal_iterator"* %ref.tmp24) #3
  %call29 = call dereferenceable(4) i32* @_ZSt4moveIRiEONSt16remove_referenceIT_E4typeEOS2_(i32* dereferenceable(4) %call28) #3
  %19 = load i32, i32* %call29, align 4
  %20 = load i64, i64* %__holeIndex.addr, align 8
  %call31 = call i32* @_ZNK9__gnu_cxx17__normal_iteratorIPiSt6vectorIiSaIiEEEplEl(%"class.__gnu_cxx::__normal_iterator"* %__first, i64 %20) #3
  %coerce.dive32 = getelementptr inbounds %"class.__gnu_cxx::__normal_iterator", %"class.__gnu_cxx::__normal_iterator"* %ref.tmp30, i32 0, i32 0
  store i32* %call31, i32** %coerce.dive32, align 8
  %call33 = call dereferenceable(4) i32* @_ZNK9__gnu_cxx17__normal_iteratorIPiSt6vectorIiSaIiEEEdeEv(%"class.__gnu_cxx::__normal_iterator"* %ref.tmp30) #3
  store i32 %19, i32* %call33, align 4
  %21 = load i64, i64* %__secondChild, align 8
  %sub34 = sub nsw i64 %21, 1
  store i64 %sub34, i64* %__holeIndex.addr, align 8
  br label %if.end35

if.end35:                                         ; preds = %if.then21, %land.lhs.true, %while.end
  %call36 = call dereferenceable(1) %"struct.__gnu_cxx::__ops::_Iter_comp_iter"* @_ZSt4moveIRN9__gnu_cxx5__ops15_Iter_comp_iterISt7greaterIiEEEEONSt16remove_referenceIT_E4typeEOS8_(%"struct.__gnu_cxx::__ops::_Iter_comp_iter"* dereferenceable(1) %__comp) #3
  call void @_ZN9__gnu_cxx5__ops14_Iter_comp_valISt7greaterIiEEC2EONS0_15_Iter_comp_iterIS3_EE(%"struct.__gnu_cxx::__ops::_Iter_comp_val"* %__cmp, %"struct.__gnu_cxx::__ops::_Iter_comp_iter"* dereferenceable(1) %call36)
  %22 = bitcast %"class.__gnu_cxx::__normal_iterator"* %agg.tmp37 to i8*
  %23 = bitcast %"class.__gnu_cxx::__normal_iterator"* %__first to i8*
  call void @llvm.memcpy.p0i8.p0i8.i64(i8* align 8 %22, i8* align 8 %23, i64 8, i1 false)
  %24 = load i64, i64* %__holeIndex.addr, align 8
  %25 = load i64, i64* %__topIndex, align 8
  %call38 = call dereferenceable(4) i32* @_ZSt4moveIRiEONSt16remove_referenceIT_E4typeEOS2_(i32* dereferenceable(4) %__value.addr) #3
  %26 = load i32, i32* %call38, align 4
  %coerce.dive39 = getelementptr inbounds %"class.__gnu_cxx::__normal_iterator", %"class.__gnu_cxx::__normal_iterator"* %agg.tmp37, i32 0, i32 0
  %27 = load i32*, i32** %coerce.dive39, align 8
  call void @_ZSt11__push_heapIN9__gnu_cxx17__normal_iteratorIPiSt6vectorIiSaIiEEEEliNS0_5__ops14_Iter_comp_valISt7greaterIiEEEEvT_T0_SD_T1_RT2_(i32* %27, i64 %24, i64 %25, i32 %26, %"struct.__gnu_cxx::__ops::_Iter_comp_val"* dereferenceable(1) %__cmp)
  ret void
}

; Function Attrs: noinline uwtable
define linkonce_odr dso_local zeroext i1 @_ZN9__gnu_cxx5__ops15_Iter_comp_iterISt7greaterIiEEclINS_17__normal_iteratorIPiSt6vectorIiSaIiEEEESB_EEbT_T0_(%"struct.__gnu_cxx::__ops::_Iter_comp_iter"* %this, i32* %__it1.coerce, i32* %__it2.coerce) #0 comdat align 2 {
entry:
  %__it1 = alloca %"class.__gnu_cxx::__normal_iterator", align 8
  %__it2 = alloca %"class.__gnu_cxx::__normal_iterator", align 8
  %this.addr = alloca %"struct.__gnu_cxx::__ops::_Iter_comp_iter"*, align 8
  %coerce.dive = getelementptr inbounds %"class.__gnu_cxx::__normal_iterator", %"class.__gnu_cxx::__normal_iterator"* %__it1, i32 0, i32 0
  store i32* %__it1.coerce, i32** %coerce.dive, align 8
  %coerce.dive1 = getelementptr inbounds %"class.__gnu_cxx::__normal_iterator", %"class.__gnu_cxx::__normal_iterator"* %__it2, i32 0, i32 0
  store i32* %__it2.coerce, i32** %coerce.dive1, align 8
  store %"struct.__gnu_cxx::__ops::_Iter_comp_iter"* %this, %"struct.__gnu_cxx::__ops::_Iter_comp_iter"** %this.addr, align 8
  %this2 = load %"struct.__gnu_cxx::__ops::_Iter_comp_iter"*, %"struct.__gnu_cxx::__ops::_Iter_comp_iter"** %this.addr, align 8
  %_M_comp = getelementptr inbounds %"struct.__gnu_cxx::__ops::_Iter_comp_iter", %"struct.__gnu_cxx::__ops::_Iter_comp_iter"* %this2, i32 0, i32 0
  %call = call dereferenceable(4) i32* @_ZNK9__gnu_cxx17__normal_iteratorIPiSt6vectorIiSaIiEEEdeEv(%"class.__gnu_cxx::__normal_iterator"* %__it1) #3
  %call3 = call dereferenceable(4) i32* @_ZNK9__gnu_cxx17__normal_iteratorIPiSt6vectorIiSaIiEEEdeEv(%"class.__gnu_cxx::__normal_iterator"* %__it2) #3
  %call4 = call zeroext i1 @_ZNKSt7greaterIiEclERKiS2_(%"struct.std::greater"* %_M_comp, i32* dereferenceable(4) %call, i32* dereferenceable(4) %call3)
  ret i1 %call4
}

; Function Attrs: noinline nounwind uwtable
define linkonce_odr dso_local dereferenceable(1) %"struct.__gnu_cxx::__ops::_Iter_comp_iter"* @_ZSt4moveIRN9__gnu_cxx5__ops15_Iter_comp_iterISt7greaterIiEEEEONSt16remove_referenceIT_E4typeEOS8_(%"struct.__gnu_cxx::__ops::_Iter_comp_iter"* dereferenceable(1) %__t) #5 comdat {
entry:
  %__t.addr = alloca %"struct.__gnu_cxx::__ops::_Iter_comp_iter"*, align 8
  store %"struct.__gnu_cxx::__ops::_Iter_comp_iter"* %__t, %"struct.__gnu_cxx::__ops::_Iter_comp_iter"** %__t.addr, align 8
  %0 = load %"struct.__gnu_cxx::__ops::_Iter_comp_iter"*, %"struct.__gnu_cxx::__ops::_Iter_comp_iter"** %__t.addr, align 8
  ret %"struct.__gnu_cxx::__ops::_Iter_comp_iter"* %0
}

; Function Attrs: noinline nounwind uwtable
define linkonce_odr dso_local void @_ZN9__gnu_cxx5__ops14_Iter_comp_valISt7greaterIiEEC2EONS0_15_Iter_comp_iterIS3_EE(%"struct.__gnu_cxx::__ops::_Iter_comp_val"* %this, %"struct.__gnu_cxx::__ops::_Iter_comp_iter"* dereferenceable(1) %__comp) unnamed_addr #5 comdat align 2 {
entry:
  %this.addr = alloca %"struct.__gnu_cxx::__ops::_Iter_comp_val"*, align 8
  %__comp.addr = alloca %"struct.__gnu_cxx::__ops::_Iter_comp_iter"*, align 8
  store %"struct.__gnu_cxx::__ops::_Iter_comp_val"* %this, %"struct.__gnu_cxx::__ops::_Iter_comp_val"** %this.addr, align 8
  store %"struct.__gnu_cxx::__ops::_Iter_comp_iter"* %__comp, %"struct.__gnu_cxx::__ops::_Iter_comp_iter"** %__comp.addr, align 8
  %this1 = load %"struct.__gnu_cxx::__ops::_Iter_comp_val"*, %"struct.__gnu_cxx::__ops::_Iter_comp_val"** %this.addr, align 8
  %_M_comp = getelementptr inbounds %"struct.__gnu_cxx::__ops::_Iter_comp_val", %"struct.__gnu_cxx::__ops::_Iter_comp_val"* %this1, i32 0, i32 0
  %0 = load %"struct.__gnu_cxx::__ops::_Iter_comp_iter"*, %"struct.__gnu_cxx::__ops::_Iter_comp_iter"** %__comp.addr, align 8
  %_M_comp2 = getelementptr inbounds %"struct.__gnu_cxx::__ops::_Iter_comp_iter", %"struct.__gnu_cxx::__ops::_Iter_comp_iter"* %0, i32 0, i32 0
  %call = call dereferenceable(1) %"struct.std::greater"* @_ZSt4moveIRSt7greaterIiEEONSt16remove_referenceIT_E4typeEOS4_(%"struct.std::greater"* dereferenceable(1) %_M_comp2) #3
  ret void
}

; Function Attrs: noinline uwtable
define linkonce_odr dso_local void @_ZSt11__push_heapIN9__gnu_cxx17__normal_iteratorIPiSt6vectorIiSaIiEEEEliNS0_5__ops14_Iter_comp_valISt7greaterIiEEEEvT_T0_SD_T1_RT2_(i32* %__first.coerce, i64 %__holeIndex, i64 %__topIndex, i32 %__value, %"struct.__gnu_cxx::__ops::_Iter_comp_val"* dereferenceable(1) %__comp) #0 comdat {
entry:
  %__first = alloca %"class.__gnu_cxx::__normal_iterator", align 8
  %__holeIndex.addr = alloca i64, align 8
  %__topIndex.addr = alloca i64, align 8
  %__value.addr = alloca i32, align 4
  %__comp.addr = alloca %"struct.__gnu_cxx::__ops::_Iter_comp_val"*, align 8
  %__parent = alloca i64, align 8
  %agg.tmp = alloca %"class.__gnu_cxx::__normal_iterator", align 8
  %ref.tmp = alloca %"class.__gnu_cxx::__normal_iterator", align 8
  %ref.tmp8 = alloca %"class.__gnu_cxx::__normal_iterator", align 8
  %ref.tmp15 = alloca %"class.__gnu_cxx::__normal_iterator", align 8
  %coerce.dive = getelementptr inbounds %"class.__gnu_cxx::__normal_iterator", %"class.__gnu_cxx::__normal_iterator"* %__first, i32 0, i32 0
  store i32* %__first.coerce, i32** %coerce.dive, align 8
  store i64 %__holeIndex, i64* %__holeIndex.addr, align 8
  store i64 %__topIndex, i64* %__topIndex.addr, align 8
  store i32 %__value, i32* %__value.addr, align 4
  store %"struct.__gnu_cxx::__ops::_Iter_comp_val"* %__comp, %"struct.__gnu_cxx::__ops::_Iter_comp_val"** %__comp.addr, align 8
  %0 = load i64, i64* %__holeIndex.addr, align 8
  %sub = sub nsw i64 %0, 1
  %div = sdiv i64 %sub, 2
  store i64 %div, i64* %__parent, align 8
  br label %while.cond

while.cond:                                       ; preds = %while.body, %entry
  %1 = load i64, i64* %__holeIndex.addr, align 8
  %2 = load i64, i64* %__topIndex.addr, align 8
  %cmp = icmp sgt i64 %1, %2
  br i1 %cmp, label %land.rhs, label %land.end

land.rhs:                                         ; preds = %while.cond
  %3 = load %"struct.__gnu_cxx::__ops::_Iter_comp_val"*, %"struct.__gnu_cxx::__ops::_Iter_comp_val"** %__comp.addr, align 8
  %4 = load i64, i64* %__parent, align 8
  %call = call i32* @_ZNK9__gnu_cxx17__normal_iteratorIPiSt6vectorIiSaIiEEEplEl(%"class.__gnu_cxx::__normal_iterator"* %__first, i64 %4) #3
  %coerce.dive1 = getelementptr inbounds %"class.__gnu_cxx::__normal_iterator", %"class.__gnu_cxx::__normal_iterator"* %agg.tmp, i32 0, i32 0
  store i32* %call, i32** %coerce.dive1, align 8
  %coerce.dive2 = getelementptr inbounds %"class.__gnu_cxx::__normal_iterator", %"class.__gnu_cxx::__normal_iterator"* %agg.tmp, i32 0, i32 0
  %5 = load i32*, i32** %coerce.dive2, align 8
  %call3 = call zeroext i1 @_ZN9__gnu_cxx5__ops14_Iter_comp_valISt7greaterIiEEclINS_17__normal_iteratorIPiSt6vectorIiSaIiEEEEiEEbT_RT0_(%"struct.__gnu_cxx::__ops::_Iter_comp_val"* %3, i32* %5, i32* dereferenceable(4) %__value.addr)
  br label %land.end

land.end:                                         ; preds = %land.rhs, %while.cond
  %6 = phi i1 [ false, %while.cond ], [ %call3, %land.rhs ]
  br i1 %6, label %while.body, label %while.end

while.body:                                       ; preds = %land.end
  %7 = load i64, i64* %__parent, align 8
  %call4 = call i32* @_ZNK9__gnu_cxx17__normal_iteratorIPiSt6vectorIiSaIiEEEplEl(%"class.__gnu_cxx::__normal_iterator"* %__first, i64 %7) #3
  %coerce.dive5 = getelementptr inbounds %"class.__gnu_cxx::__normal_iterator", %"class.__gnu_cxx::__normal_iterator"* %ref.tmp, i32 0, i32 0
  store i32* %call4, i32** %coerce.dive5, align 8
  %call6 = call dereferenceable(4) i32* @_ZNK9__gnu_cxx17__normal_iteratorIPiSt6vectorIiSaIiEEEdeEv(%"class.__gnu_cxx::__normal_iterator"* %ref.tmp) #3
  %call7 = call dereferenceable(4) i32* @_ZSt4moveIRiEONSt16remove_referenceIT_E4typeEOS2_(i32* dereferenceable(4) %call6) #3
  %8 = load i32, i32* %call7, align 4
  %9 = load i64, i64* %__holeIndex.addr, align 8
  %call9 = call i32* @_ZNK9__gnu_cxx17__normal_iteratorIPiSt6vectorIiSaIiEEEplEl(%"class.__gnu_cxx::__normal_iterator"* %__first, i64 %9) #3
  %coerce.dive10 = getelementptr inbounds %"class.__gnu_cxx::__normal_iterator", %"class.__gnu_cxx::__normal_iterator"* %ref.tmp8, i32 0, i32 0
  store i32* %call9, i32** %coerce.dive10, align 8
  %call11 = call dereferenceable(4) i32* @_ZNK9__gnu_cxx17__normal_iteratorIPiSt6vectorIiSaIiEEEdeEv(%"class.__gnu_cxx::__normal_iterator"* %ref.tmp8) #3
  store i32 %8, i32* %call11, align 4
  %10 = load i64, i64* %__parent, align 8
  store i64 %10, i64* %__holeIndex.addr, align 8
  %11 = load i64, i64* %__holeIndex.addr, align 8
  %sub12 = sub nsw i64 %11, 1
  %div13 = sdiv i64 %sub12, 2
  store i64 %div13, i64* %__parent, align 8
  br label %while.cond

while.end:                                        ; preds = %land.end
  %call14 = call dereferenceable(4) i32* @_ZSt4moveIRiEONSt16remove_referenceIT_E4typeEOS2_(i32* dereferenceable(4) %__value.addr) #3
  %12 = load i32, i32* %call14, align 4
  %13 = load i64, i64* %__holeIndex.addr, align 8
  %call16 = call i32* @_ZNK9__gnu_cxx17__normal_iteratorIPiSt6vectorIiSaIiEEEplEl(%"class.__gnu_cxx::__normal_iterator"* %__first, i64 %13) #3
  %coerce.dive17 = getelementptr inbounds %"class.__gnu_cxx::__normal_iterator", %"class.__gnu_cxx::__normal_iterator"* %ref.tmp15, i32 0, i32 0
  store i32* %call16, i32** %coerce.dive17, align 8
  %call18 = call dereferenceable(4) i32* @_ZNK9__gnu_cxx17__normal_iteratorIPiSt6vectorIiSaIiEEEdeEv(%"class.__gnu_cxx::__normal_iterator"* %ref.tmp15) #3
  store i32 %12, i32* %call18, align 4
  ret void
}

; Function Attrs: noinline nounwind uwtable
define linkonce_odr dso_local zeroext i1 @_ZNKSt7greaterIiEclERKiS2_(%"struct.std::greater"* %this, i32* dereferenceable(4) %__x, i32* dereferenceable(4) %__y) #5 comdat align 2 {
entry:
  %this.addr = alloca %"struct.std::greater"*, align 8
  %__x.addr = alloca i32*, align 8
  %__y.addr = alloca i32*, align 8
  store %"struct.std::greater"* %this, %"struct.std::greater"** %this.addr, align 8
  store i32* %__x, i32** %__x.addr, align 8
  store i32* %__y, i32** %__y.addr, align 8
  %this1 = load %"struct.std::greater"*, %"struct.std::greater"** %this.addr, align 8
  %0 = load i32*, i32** %__x.addr, align 8
  %1 = load i32, i32* %0, align 4
  %2 = load i32*, i32** %__y.addr, align 8
  %3 = load i32, i32* %2, align 4
  %cmp = icmp sgt i32 %1, %3
  ret i1 %cmp
}

; Function Attrs: noinline nounwind uwtable
define linkonce_odr dso_local zeroext i1 @_ZN9__gnu_cxx5__ops14_Iter_comp_valISt7greaterIiEEclINS_17__normal_iteratorIPiSt6vectorIiSaIiEEEEiEEbT_RT0_(%"struct.__gnu_cxx::__ops::_Iter_comp_val"* %this, i32* %__it.coerce, i32* dereferenceable(4) %__val) #5 comdat align 2 {
entry:
  %__it = alloca %"class.__gnu_cxx::__normal_iterator", align 8
  %this.addr = alloca %"struct.__gnu_cxx::__ops::_Iter_comp_val"*, align 8
  %__val.addr = alloca i32*, align 8
  %coerce.dive = getelementptr inbounds %"class.__gnu_cxx::__normal_iterator", %"class.__gnu_cxx::__normal_iterator"* %__it, i32 0, i32 0
  store i32* %__it.coerce, i32** %coerce.dive, align 8
  store %"struct.__gnu_cxx::__ops::_Iter_comp_val"* %this, %"struct.__gnu_cxx::__ops::_Iter_comp_val"** %this.addr, align 8
  store i32* %__val, i32** %__val.addr, align 8
  %this1 = load %"struct.__gnu_cxx::__ops::_Iter_comp_val"*, %"struct.__gnu_cxx::__ops::_Iter_comp_val"** %this.addr, align 8
  %_M_comp = getelementptr inbounds %"struct.__gnu_cxx::__ops::_Iter_comp_val", %"struct.__gnu_cxx::__ops::_Iter_comp_val"* %this1, i32 0, i32 0
  %call = call dereferenceable(4) i32* @_ZNK9__gnu_cxx17__normal_iteratorIPiSt6vectorIiSaIiEEEdeEv(%"class.__gnu_cxx::__normal_iterator"* %__it) #3
  %0 = load i32*, i32** %__val.addr, align 8
  %call2 = call zeroext i1 @_ZNKSt7greaterIiEclERKiS2_(%"struct.std::greater"* %_M_comp, i32* dereferenceable(4) %call, i32* dereferenceable(4) %0)
  ret i1 %call2
}

; Function Attrs: noinline nounwind uwtable
define linkonce_odr dso_local dereferenceable(4) i32* @_ZNKSt6vectorIiSaIiEE5frontEv(%"class.std::vector"* %this) #5 comdat align 2 {
entry:
  %this.addr = alloca %"class.std::vector"*, align 8
  %ref.tmp = alloca %"class.__gnu_cxx::__normal_iterator.0", align 8
  store %"class.std::vector"* %this, %"class.std::vector"** %this.addr, align 8
  %this1 = load %"class.std::vector"*, %"class.std::vector"** %this.addr, align 8
  %call = call i32* @_ZNKSt6vectorIiSaIiEE5beginEv(%"class.std::vector"* %this1) #3
  %coerce.dive = getelementptr inbounds %"class.__gnu_cxx::__normal_iterator.0", %"class.__gnu_cxx::__normal_iterator.0"* %ref.tmp, i32 0, i32 0
  store i32* %call, i32** %coerce.dive, align 8
  %call2 = call dereferenceable(4) i32* @_ZNK9__gnu_cxx17__normal_iteratorIPKiSt6vectorIiSaIiEEEdeEv(%"class.__gnu_cxx::__normal_iterator.0"* %ref.tmp) #3
  ret i32* %call2
}

; Function Attrs: noinline nounwind uwtable
define linkonce_odr dso_local i32* @_ZNKSt6vectorIiSaIiEE5beginEv(%"class.std::vector"* %this) #5 comdat align 2 {
entry:
  %retval = alloca %"class.__gnu_cxx::__normal_iterator.0", align 8
  %this.addr = alloca %"class.std::vector"*, align 8
  %ref.tmp = alloca i32*, align 8
  store %"class.std::vector"* %this, %"class.std::vector"** %this.addr, align 8
  %this1 = load %"class.std::vector"*, %"class.std::vector"** %this.addr, align 8
  %0 = bitcast %"class.std::vector"* %this1 to %"struct.std::_Vector_base"*
  %_M_impl = getelementptr inbounds %"struct.std::_Vector_base", %"struct.std::_Vector_base"* %0, i32 0, i32 0
  %1 = bitcast %"struct.std::_Vector_base<int, std::allocator<int> >::_Vector_impl"* %_M_impl to %"struct.std::_Vector_base<int, std::allocator<int> >::_Vector_impl_data"*
  %_M_start = getelementptr inbounds %"struct.std::_Vector_base<int, std::allocator<int> >::_Vector_impl_data", %"struct.std::_Vector_base<int, std::allocator<int> >::_Vector_impl_data"* %1, i32 0, i32 0
  %2 = load i32*, i32** %_M_start, align 8
  store i32* %2, i32** %ref.tmp, align 8
  call void @_ZN9__gnu_cxx17__normal_iteratorIPKiSt6vectorIiSaIiEEEC2ERKS2_(%"class.__gnu_cxx::__normal_iterator.0"* %retval, i32** dereferenceable(8) %ref.tmp) #3
  %coerce.dive = getelementptr inbounds %"class.__gnu_cxx::__normal_iterator.0", %"class.__gnu_cxx::__normal_iterator.0"* %retval, i32 0, i32 0
  %3 = load i32*, i32** %coerce.dive, align 8
  ret i32* %3
}

; Function Attrs: noinline nounwind uwtable
define linkonce_odr dso_local dereferenceable(4) i32* @_ZNK9__gnu_cxx17__normal_iteratorIPKiSt6vectorIiSaIiEEEdeEv(%"class.__gnu_cxx::__normal_iterator.0"* %this) #5 comdat align 2 {
entry:
  %this.addr = alloca %"class.__gnu_cxx::__normal_iterator.0"*, align 8
  store %"class.__gnu_cxx::__normal_iterator.0"* %this, %"class.__gnu_cxx::__normal_iterator.0"** %this.addr, align 8
  %this1 = load %"class.__gnu_cxx::__normal_iterator.0"*, %"class.__gnu_cxx::__normal_iterator.0"** %this.addr, align 8
  %_M_current = getelementptr inbounds %"class.__gnu_cxx::__normal_iterator.0", %"class.__gnu_cxx::__normal_iterator.0"* %this1, i32 0, i32 0
  %0 = load i32*, i32** %_M_current, align 8
  ret i32* %0
}

; Function Attrs: noinline uwtable
define linkonce_odr dso_local void @_ZSt8pop_heapIN9__gnu_cxx17__normal_iteratorIPiSt6vectorIiSaIiEEEESt7greaterIiEEvT_S9_T0_(i32* %__first.coerce, i32* %__last.coerce) #0 comdat {
entry:
  %__first = alloca %"class.__gnu_cxx::__normal_iterator", align 8
  %__last = alloca %"class.__gnu_cxx::__normal_iterator", align 8
  %__comp = alloca %"struct.std::greater", align 1
  %__cmp = alloca %"struct.__gnu_cxx::__ops::_Iter_comp_iter", align 1
  %agg.tmp = alloca %"struct.std::greater", align 1
  %agg.tmp4 = alloca %"class.__gnu_cxx::__normal_iterator", align 8
  %agg.tmp5 = alloca %"class.__gnu_cxx::__normal_iterator", align 8
  %agg.tmp6 = alloca %"class.__gnu_cxx::__normal_iterator", align 8
  %coerce.dive = getelementptr inbounds %"class.__gnu_cxx::__normal_iterator", %"class.__gnu_cxx::__normal_iterator"* %__first, i32 0, i32 0
  store i32* %__first.coerce, i32** %coerce.dive, align 8
  %coerce.dive1 = getelementptr inbounds %"class.__gnu_cxx::__normal_iterator", %"class.__gnu_cxx::__normal_iterator"* %__last, i32 0, i32 0
  store i32* %__last.coerce, i32** %coerce.dive1, align 8
  %call = call i64 @_ZN9__gnu_cxxmiIPiSt6vectorIiSaIiEEEENS_17__normal_iteratorIT_T0_E15difference_typeERKS8_SB_(%"class.__gnu_cxx::__normal_iterator"* dereferenceable(8) %__last, %"class.__gnu_cxx::__normal_iterator"* dereferenceable(8) %__first) #3
  %cmp = icmp sgt i64 %call, 1
  br i1 %cmp, label %if.then, label %if.end

if.then:                                          ; preds = %entry
  %call2 = call dereferenceable(1) %"struct.std::greater"* @_ZSt4moveIRSt7greaterIiEEONSt16remove_referenceIT_E4typeEOS4_(%"struct.std::greater"* dereferenceable(1) %__comp) #3
  call void @_ZN9__gnu_cxx5__ops15_Iter_comp_iterISt7greaterIiEEC2ES3_(%"struct.__gnu_cxx::__ops::_Iter_comp_iter"* %__cmp)
  %call3 = call dereferenceable(8) %"class.__gnu_cxx::__normal_iterator"* @_ZN9__gnu_cxx17__normal_iteratorIPiSt6vectorIiSaIiEEEmmEv(%"class.__gnu_cxx::__normal_iterator"* %__last) #3
  %0 = bitcast %"class.__gnu_cxx::__normal_iterator"* %agg.tmp4 to i8*
  %1 = bitcast %"class.__gnu_cxx::__normal_iterator"* %__first to i8*
  call void @llvm.memcpy.p0i8.p0i8.i64(i8* align 8 %0, i8* align 8 %1, i64 8, i1 false)
  %2 = bitcast %"class.__gnu_cxx::__normal_iterator"* %agg.tmp5 to i8*
  %3 = bitcast %"class.__gnu_cxx::__normal_iterator"* %__last to i8*
  call void @llvm.memcpy.p0i8.p0i8.i64(i8* align 8 %2, i8* align 8 %3, i64 8, i1 false)
  %4 = bitcast %"class.__gnu_cxx::__normal_iterator"* %agg.tmp6 to i8*
  %5 = bitcast %"class.__gnu_cxx::__normal_iterator"* %__last to i8*
  call void @llvm.memcpy.p0i8.p0i8.i64(i8* align 8 %4, i8* align 8 %5, i64 8, i1 false)
  %coerce.dive7 = getelementptr inbounds %"class.__gnu_cxx::__normal_iterator", %"class.__gnu_cxx::__normal_iterator"* %agg.tmp4, i32 0, i32 0
  %6 = load i32*, i32** %coerce.dive7, align 8
  %coerce.dive8 = getelementptr inbounds %"class.__gnu_cxx::__normal_iterator", %"class.__gnu_cxx::__normal_iterator"* %agg.tmp5, i32 0, i32 0
  %7 = load i32*, i32** %coerce.dive8, align 8
  %coerce.dive9 = getelementptr inbounds %"class.__gnu_cxx::__normal_iterator", %"class.__gnu_cxx::__normal_iterator"* %agg.tmp6, i32 0, i32 0
  %8 = load i32*, i32** %coerce.dive9, align 8
  call void @_ZSt10__pop_heapIN9__gnu_cxx17__normal_iteratorIPiSt6vectorIiSaIiEEEENS0_5__ops15_Iter_comp_iterISt7greaterIiEEEEvT_SC_SC_RT0_(i32* %6, i32* %7, i32* %8, %"struct.__gnu_cxx::__ops::_Iter_comp_iter"* dereferenceable(1) %__cmp)
  br label %if.end

if.end:                                           ; preds = %if.then, %entry
  ret void
}

; Function Attrs: noinline nounwind uwtable
define linkonce_odr dso_local void @_ZNSt6vectorIiSaIiEE8pop_backEv(%"class.std::vector"* %this) #5 comdat align 2 {
entry:
  %this.addr = alloca %"class.std::vector"*, align 8
  store %"class.std::vector"* %this, %"class.std::vector"** %this.addr, align 8
  %this1 = load %"class.std::vector"*, %"class.std::vector"** %this.addr, align 8
  %0 = bitcast %"class.std::vector"* %this1 to %"struct.std::_Vector_base"*
  %_M_impl = getelementptr inbounds %"struct.std::_Vector_base", %"struct.std::_Vector_base"* %0, i32 0, i32 0
  %1 = bitcast %"struct.std::_Vector_base<int, std::allocator<int> >::_Vector_impl"* %_M_impl to %"struct.std::_Vector_base<int, std::allocator<int> >::_Vector_impl_data"*
  %_M_finish = getelementptr inbounds %"struct.std::_Vector_base<int, std::allocator<int> >::_Vector_impl_data", %"struct.std::_Vector_base<int, std::allocator<int> >::_Vector_impl_data"* %1, i32 0, i32 1
  %2 = load i32*, i32** %_M_finish, align 8
  %incdec.ptr = getelementptr inbounds i32, i32* %2, i32 -1
  store i32* %incdec.ptr, i32** %_M_finish, align 8
  %3 = bitcast %"class.std::vector"* %this1 to %"struct.std::_Vector_base"*
  %_M_impl2 = getelementptr inbounds %"struct.std::_Vector_base", %"struct.std::_Vector_base"* %3, i32 0, i32 0
  %4 = bitcast %"struct.std::_Vector_base<int, std::allocator<int> >::_Vector_impl"* %_M_impl2 to %"class.std::allocator"*
  %5 = bitcast %"class.std::vector"* %this1 to %"struct.std::_Vector_base"*
  %_M_impl3 = getelementptr inbounds %"struct.std::_Vector_base", %"struct.std::_Vector_base"* %5, i32 0, i32 0
  %6 = bitcast %"struct.std::_Vector_base<int, std::allocator<int> >::_Vector_impl"* %_M_impl3 to %"struct.std::_Vector_base<int, std::allocator<int> >::_Vector_impl_data"*
  %_M_finish4 = getelementptr inbounds %"struct.std::_Vector_base<int, std::allocator<int> >::_Vector_impl_data", %"struct.std::_Vector_base<int, std::allocator<int> >::_Vector_impl_data"* %6, i32 0, i32 1
  %7 = load i32*, i32** %_M_finish4, align 8
  call void @_ZNSt16allocator_traitsISaIiEE7destroyIiEEvRS0_PT_(%"class.std::allocator"* dereferenceable(1) %4, i32* %7) #3
  ret void
}

; Function Attrs: noinline nounwind uwtable
define linkonce_odr dso_local dereferenceable(8) %"class.__gnu_cxx::__normal_iterator"* @_ZN9__gnu_cxx17__normal_iteratorIPiSt6vectorIiSaIiEEEmmEv(%"class.__gnu_cxx::__normal_iterator"* %this) #5 comdat align 2 {
entry:
  %this.addr = alloca %"class.__gnu_cxx::__normal_iterator"*, align 8
  store %"class.__gnu_cxx::__normal_iterator"* %this, %"class.__gnu_cxx::__normal_iterator"** %this.addr, align 8
  %this1 = load %"class.__gnu_cxx::__normal_iterator"*, %"class.__gnu_cxx::__normal_iterator"** %this.addr, align 8
  %_M_current = getelementptr inbounds %"class.__gnu_cxx::__normal_iterator", %"class.__gnu_cxx::__normal_iterator"* %this1, i32 0, i32 0
  %0 = load i32*, i32** %_M_current, align 8
  %incdec.ptr = getelementptr inbounds i32, i32* %0, i32 -1
  store i32* %incdec.ptr, i32** %_M_current, align 8
  ret %"class.__gnu_cxx::__normal_iterator"* %this1
}

; Function Attrs: noinline uwtable
define linkonce_odr dso_local void @_ZSt10__pop_heapIN9__gnu_cxx17__normal_iteratorIPiSt6vectorIiSaIiEEEENS0_5__ops15_Iter_comp_iterISt7greaterIiEEEEvT_SC_SC_RT0_(i32* %__first.coerce, i32* %__last.coerce, i32* %__result.coerce, %"struct.__gnu_cxx::__ops::_Iter_comp_iter"* dereferenceable(1) %__comp) #0 comdat {
entry:
  %__first = alloca %"class.__gnu_cxx::__normal_iterator", align 8
  %__last = alloca %"class.__gnu_cxx::__normal_iterator", align 8
  %__result = alloca %"class.__gnu_cxx::__normal_iterator", align 8
  %__comp.addr = alloca %"struct.__gnu_cxx::__ops::_Iter_comp_iter"*, align 8
  %__value = alloca i32, align 4
  %agg.tmp = alloca %"class.__gnu_cxx::__normal_iterator", align 8
  %agg.tmp9 = alloca %"struct.__gnu_cxx::__ops::_Iter_comp_iter", align 1
  %coerce.dive = getelementptr inbounds %"class.__gnu_cxx::__normal_iterator", %"class.__gnu_cxx::__normal_iterator"* %__first, i32 0, i32 0
  store i32* %__first.coerce, i32** %coerce.dive, align 8
  %coerce.dive1 = getelementptr inbounds %"class.__gnu_cxx::__normal_iterator", %"class.__gnu_cxx::__normal_iterator"* %__last, i32 0, i32 0
  store i32* %__last.coerce, i32** %coerce.dive1, align 8
  %coerce.dive2 = getelementptr inbounds %"class.__gnu_cxx::__normal_iterator", %"class.__gnu_cxx::__normal_iterator"* %__result, i32 0, i32 0
  store i32* %__result.coerce, i32** %coerce.dive2, align 8
  store %"struct.__gnu_cxx::__ops::_Iter_comp_iter"* %__comp, %"struct.__gnu_cxx::__ops::_Iter_comp_iter"** %__comp.addr, align 8
  %call = call dereferenceable(4) i32* @_ZNK9__gnu_cxx17__normal_iteratorIPiSt6vectorIiSaIiEEEdeEv(%"class.__gnu_cxx::__normal_iterator"* %__result) #3
  %call3 = call dereferenceable(4) i32* @_ZSt4moveIRiEONSt16remove_referenceIT_E4typeEOS2_(i32* dereferenceable(4) %call) #3
  %0 = load i32, i32* %call3, align 4
  store i32 %0, i32* %__value, align 4
  %call4 = call dereferenceable(4) i32* @_ZNK9__gnu_cxx17__normal_iteratorIPiSt6vectorIiSaIiEEEdeEv(%"class.__gnu_cxx::__normal_iterator"* %__first) #3
  %call5 = call dereferenceable(4) i32* @_ZSt4moveIRiEONSt16remove_referenceIT_E4typeEOS2_(i32* dereferenceable(4) %call4) #3
  %1 = load i32, i32* %call5, align 4
  %call6 = call dereferenceable(4) i32* @_ZNK9__gnu_cxx17__normal_iteratorIPiSt6vectorIiSaIiEEEdeEv(%"class.__gnu_cxx::__normal_iterator"* %__result) #3
  store i32 %1, i32* %call6, align 4
  %2 = bitcast %"class.__gnu_cxx::__normal_iterator"* %agg.tmp to i8*
  %3 = bitcast %"class.__gnu_cxx::__normal_iterator"* %__first to i8*
  call void @llvm.memcpy.p0i8.p0i8.i64(i8* align 8 %2, i8* align 8 %3, i64 8, i1 false)
  %call7 = call i64 @_ZN9__gnu_cxxmiIPiSt6vectorIiSaIiEEEENS_17__normal_iteratorIT_T0_E15difference_typeERKS8_SB_(%"class.__gnu_cxx::__normal_iterator"* dereferenceable(8) %__last, %"class.__gnu_cxx::__normal_iterator"* dereferenceable(8) %__first) #3
  %call8 = call dereferenceable(4) i32* @_ZSt4moveIRiEONSt16remove_referenceIT_E4typeEOS2_(i32* dereferenceable(4) %__value) #3
  %4 = load i32, i32* %call8, align 4
  %5 = load %"struct.__gnu_cxx::__ops::_Iter_comp_iter"*, %"struct.__gnu_cxx::__ops::_Iter_comp_iter"** %__comp.addr, align 8
  %6 = bitcast %"struct.__gnu_cxx::__ops::_Iter_comp_iter"* %agg.tmp9 to i8*
  %7 = bitcast %"struct.__gnu_cxx::__ops::_Iter_comp_iter"* %5 to i8*
  call void @llvm.memcpy.p0i8.p0i8.i64(i8* align 1 %6, i8* align 1 %7, i64 1, i1 false)
  %coerce.dive10 = getelementptr inbounds %"class.__gnu_cxx::__normal_iterator", %"class.__gnu_cxx::__normal_iterator"* %agg.tmp, i32 0, i32 0
  %8 = load i32*, i32** %coerce.dive10, align 8
  call void @_ZSt13__adjust_heapIN9__gnu_cxx17__normal_iteratorIPiSt6vectorIiSaIiEEEEliNS0_5__ops15_Iter_comp_iterISt7greaterIiEEEEvT_T0_SD_T1_T2_(i32* %8, i64 0, i64 %call7, i32 %4)
  ret void
}

; Function Attrs: noinline nounwind uwtable
define linkonce_odr dso_local void @_ZNSt16allocator_traitsISaIiEE7destroyIiEEvRS0_PT_(%"class.std::allocator"* dereferenceable(1) %__a, i32* %__p) #5 comdat align 2 {
entry:
  %__a.addr = alloca %"class.std::allocator"*, align 8
  %__p.addr = alloca i32*, align 8
  store %"class.std::allocator"* %__a, %"class.std::allocator"** %__a.addr, align 8
  store i32* %__p, i32** %__p.addr, align 8
  %0 = load %"class.std::allocator"*, %"class.std::allocator"** %__a.addr, align 8
  %1 = bitcast %"class.std::allocator"* %0 to %"class.__gnu_cxx::new_allocator"*
  %2 = load i32*, i32** %__p.addr, align 8
  call void @_ZN9__gnu_cxx13new_allocatorIiE7destroyIiEEvPT_(%"class.__gnu_cxx::new_allocator"* %1, i32* %2) #3
  ret void
}

; Function Attrs: noinline nounwind uwtable
define linkonce_odr dso_local void @_ZN9__gnu_cxx13new_allocatorIiE7destroyIiEEvPT_(%"class.__gnu_cxx::new_allocator"* %this, i32* %__p) #5 comdat align 2 {
entry:
  %this.addr = alloca %"class.__gnu_cxx::new_allocator"*, align 8
  %__p.addr = alloca i32*, align 8
  store %"class.__gnu_cxx::new_allocator"* %this, %"class.__gnu_cxx::new_allocator"** %this.addr, align 8
  store i32* %__p, i32** %__p.addr, align 8
  %this1 = load %"class.__gnu_cxx::new_allocator"*, %"class.__gnu_cxx::new_allocator"** %this.addr, align 8
  ret void
}

; Function Attrs: noinline uwtable
define linkonce_odr dso_local void @_ZNSt6vectorIiSaIiEE9push_backERKi(%"class.std::vector"* %this, i32* dereferenceable(4) %__x) #0 comdat align 2 {
entry:
  %this.addr = alloca %"class.std::vector"*, align 8
  %__x.addr = alloca i32*, align 8
  %agg.tmp = alloca %"class.__gnu_cxx::__normal_iterator", align 8
  store %"class.std::vector"* %this, %"class.std::vector"** %this.addr, align 8
  store i32* %__x, i32** %__x.addr, align 8
  %this1 = load %"class.std::vector"*, %"class.std::vector"** %this.addr, align 8
  %0 = bitcast %"class.std::vector"* %this1 to %"struct.std::_Vector_base"*
  %_M_impl = getelementptr inbounds %"struct.std::_Vector_base", %"struct.std::_Vector_base"* %0, i32 0, i32 0
  %1 = bitcast %"struct.std::_Vector_base<int, std::allocator<int> >::_Vector_impl"* %_M_impl to %"struct.std::_Vector_base<int, std::allocator<int> >::_Vector_impl_data"*
  %_M_finish = getelementptr inbounds %"struct.std::_Vector_base<int, std::allocator<int> >::_Vector_impl_data", %"struct.std::_Vector_base<int, std::allocator<int> >::_Vector_impl_data"* %1, i32 0, i32 1
  %2 = load i32*, i32** %_M_finish, align 8
  %3 = bitcast %"class.std::vector"* %this1 to %"struct.std::_Vector_base"*
  %_M_impl2 = getelementptr inbounds %"struct.std::_Vector_base", %"struct.std::_Vector_base"* %3, i32 0, i32 0
  %4 = bitcast %"struct.std::_Vector_base<int, std::allocator<int> >::_Vector_impl"* %_M_impl2 to %"struct.std::_Vector_base<int, std::allocator<int> >::_Vector_impl_data"*
  %_M_end_of_storage = getelementptr inbounds %"struct.std::_Vector_base<int, std::allocator<int> >::_Vector_impl_data", %"struct.std::_Vector_base<int, std::allocator<int> >::_Vector_impl_data"* %4, i32 0, i32 2
  %5 = load i32*, i32** %_M_end_of_storage, align 8
  %cmp = icmp ne i32* %2, %5
  br i1 %cmp, label %if.then, label %if.else

if.then:                                          ; preds = %entry
  %6 = bitcast %"class.std::vector"* %this1 to %"struct.std::_Vector_base"*
  %_M_impl3 = getelementptr inbounds %"struct.std::_Vector_base", %"struct.std::_Vector_base"* %6, i32 0, i32 0
  %7 = bitcast %"struct.std::_Vector_base<int, std::allocator<int> >::_Vector_impl"* %_M_impl3 to %"class.std::allocator"*
  %8 = bitcast %"class.std::vector"* %this1 to %"struct.std::_Vector_base"*
  %_M_impl4 = getelementptr inbounds %"struct.std::_Vector_base", %"struct.std::_Vector_base"* %8, i32 0, i32 0
  %9 = bitcast %"struct.std::_Vector_base<int, std::allocator<int> >::_Vector_impl"* %_M_impl4 to %"struct.std::_Vector_base<int, std::allocator<int> >::_Vector_impl_data"*
  %_M_finish5 = getelementptr inbounds %"struct.std::_Vector_base<int, std::allocator<int> >::_Vector_impl_data", %"struct.std::_Vector_base<int, std::allocator<int> >::_Vector_impl_data"* %9, i32 0, i32 1
  %10 = load i32*, i32** %_M_finish5, align 8
  %11 = load i32*, i32** %__x.addr, align 8
  call void @_ZNSt16allocator_traitsISaIiEE9constructIiJRKiEEEvRS0_PT_DpOT0_(%"class.std::allocator"* dereferenceable(1) %7, i32* %10, i32* dereferenceable(4) %11) #3
  %12 = bitcast %"class.std::vector"* %this1 to %"struct.std::_Vector_base"*
  %_M_impl6 = getelementptr inbounds %"struct.std::_Vector_base", %"struct.std::_Vector_base"* %12, i32 0, i32 0
  %13 = bitcast %"struct.std::_Vector_base<int, std::allocator<int> >::_Vector_impl"* %_M_impl6 to %"struct.std::_Vector_base<int, std::allocator<int> >::_Vector_impl_data"*
  %_M_finish7 = getelementptr inbounds %"struct.std::_Vector_base<int, std::allocator<int> >::_Vector_impl_data", %"struct.std::_Vector_base<int, std::allocator<int> >::_Vector_impl_data"* %13, i32 0, i32 1
  %14 = load i32*, i32** %_M_finish7, align 8
  %incdec.ptr = getelementptr inbounds i32, i32* %14, i32 1
  store i32* %incdec.ptr, i32** %_M_finish7, align 8
  br label %if.end

if.else:                                          ; preds = %entry
  %call = call i32* @_ZNSt6vectorIiSaIiEE3endEv(%"class.std::vector"* %this1) #3
  %coerce.dive = getelementptr inbounds %"class.__gnu_cxx::__normal_iterator", %"class.__gnu_cxx::__normal_iterator"* %agg.tmp, i32 0, i32 0
  store i32* %call, i32** %coerce.dive, align 8
  %15 = load i32*, i32** %__x.addr, align 8
  %coerce.dive8 = getelementptr inbounds %"class.__gnu_cxx::__normal_iterator", %"class.__gnu_cxx::__normal_iterator"* %agg.tmp, i32 0, i32 0
  %16 = load i32*, i32** %coerce.dive8, align 8
  call void @_ZNSt6vectorIiSaIiEE17_M_realloc_insertIJRKiEEEvN9__gnu_cxx17__normal_iteratorIPiS1_EEDpOT_(%"class.std::vector"* %this1, i32* %16, i32* dereferenceable(4) %15)
  br label %if.end

if.end:                                           ; preds = %if.else, %if.then
  ret void
}

; Function Attrs: noinline uwtable
define linkonce_odr dso_local void @_ZSt9push_heapIN9__gnu_cxx17__normal_iteratorIPiSt6vectorIiSaIiEEEESt7greaterIiEEvT_S9_T0_(i32* %__first.coerce, i32* %__last.coerce) #0 comdat {
entry:
  %__first = alloca %"class.__gnu_cxx::__normal_iterator", align 8
  %__last = alloca %"class.__gnu_cxx::__normal_iterator", align 8
  %__comp = alloca %"struct.std::greater", align 1
  %__cmp = alloca %"struct.__gnu_cxx::__ops::_Iter_comp_val", align 1
  %agg.tmp = alloca %"struct.std::greater", align 1
  %__value = alloca i32, align 4
  %ref.tmp = alloca %"class.__gnu_cxx::__normal_iterator", align 8
  %agg.tmp6 = alloca %"class.__gnu_cxx::__normal_iterator", align 8
  %coerce.dive = getelementptr inbounds %"class.__gnu_cxx::__normal_iterator", %"class.__gnu_cxx::__normal_iterator"* %__first, i32 0, i32 0
  store i32* %__first.coerce, i32** %coerce.dive, align 8
  %coerce.dive1 = getelementptr inbounds %"class.__gnu_cxx::__normal_iterator", %"class.__gnu_cxx::__normal_iterator"* %__last, i32 0, i32 0
  store i32* %__last.coerce, i32** %coerce.dive1, align 8
  %call = call dereferenceable(1) %"struct.std::greater"* @_ZSt4moveIRSt7greaterIiEEONSt16remove_referenceIT_E4typeEOS4_(%"struct.std::greater"* dereferenceable(1) %__comp) #3
  call void @_ZN9__gnu_cxx5__ops14_Iter_comp_valISt7greaterIiEEC2ES3_(%"struct.__gnu_cxx::__ops::_Iter_comp_val"* %__cmp)
  %call2 = call i32* @_ZNK9__gnu_cxx17__normal_iteratorIPiSt6vectorIiSaIiEEEmiEl(%"class.__gnu_cxx::__normal_iterator"* %__last, i64 1) #3
  %coerce.dive3 = getelementptr inbounds %"class.__gnu_cxx::__normal_iterator", %"class.__gnu_cxx::__normal_iterator"* %ref.tmp, i32 0, i32 0
  store i32* %call2, i32** %coerce.dive3, align 8
  %call4 = call dereferenceable(4) i32* @_ZNK9__gnu_cxx17__normal_iteratorIPiSt6vectorIiSaIiEEEdeEv(%"class.__gnu_cxx::__normal_iterator"* %ref.tmp) #3
  %call5 = call dereferenceable(4) i32* @_ZSt4moveIRiEONSt16remove_referenceIT_E4typeEOS2_(i32* dereferenceable(4) %call4) #3
  %0 = load i32, i32* %call5, align 4
  store i32 %0, i32* %__value, align 4
  %1 = bitcast %"class.__gnu_cxx::__normal_iterator"* %agg.tmp6 to i8*
  %2 = bitcast %"class.__gnu_cxx::__normal_iterator"* %__first to i8*
  call void @llvm.memcpy.p0i8.p0i8.i64(i8* align 8 %1, i8* align 8 %2, i64 8, i1 false)
  %call7 = call i64 @_ZN9__gnu_cxxmiIPiSt6vectorIiSaIiEEEENS_17__normal_iteratorIT_T0_E15difference_typeERKS8_SB_(%"class.__gnu_cxx::__normal_iterator"* dereferenceable(8) %__last, %"class.__gnu_cxx::__normal_iterator"* dereferenceable(8) %__first) #3
  %sub = sub nsw i64 %call7, 1
  %call8 = call dereferenceable(4) i32* @_ZSt4moveIRiEONSt16remove_referenceIT_E4typeEOS2_(i32* dereferenceable(4) %__value) #3
  %3 = load i32, i32* %call8, align 4
  %coerce.dive9 = getelementptr inbounds %"class.__gnu_cxx::__normal_iterator", %"class.__gnu_cxx::__normal_iterator"* %agg.tmp6, i32 0, i32 0
  %4 = load i32*, i32** %coerce.dive9, align 8
  call void @_ZSt11__push_heapIN9__gnu_cxx17__normal_iteratorIPiSt6vectorIiSaIiEEEEliNS0_5__ops14_Iter_comp_valISt7greaterIiEEEEvT_T0_SD_T1_RT2_(i32* %4, i64 %sub, i64 0, i32 %3, %"struct.__gnu_cxx::__ops::_Iter_comp_val"* dereferenceable(1) %__cmp)
  ret void
}

; Function Attrs: noinline nounwind uwtable
define linkonce_odr dso_local void @_ZNSt16allocator_traitsISaIiEE9constructIiJRKiEEEvRS0_PT_DpOT0_(%"class.std::allocator"* dereferenceable(1) %__a, i32* %__p, i32* dereferenceable(4) %__args) #5 comdat align 2 {
entry:
  %__a.addr = alloca %"class.std::allocator"*, align 8
  %__p.addr = alloca i32*, align 8
  %__args.addr = alloca i32*, align 8
  store %"class.std::allocator"* %__a, %"class.std::allocator"** %__a.addr, align 8
  store i32* %__p, i32** %__p.addr, align 8
  store i32* %__args, i32** %__args.addr, align 8
  %0 = load %"class.std::allocator"*, %"class.std::allocator"** %__a.addr, align 8
  %1 = bitcast %"class.std::allocator"* %0 to %"class.__gnu_cxx::new_allocator"*
  %2 = load i32*, i32** %__p.addr, align 8
  %3 = load i32*, i32** %__args.addr, align 8
  %call = call dereferenceable(4) i32* @_ZSt7forwardIRKiEOT_RNSt16remove_referenceIS2_E4typeE(i32* dereferenceable(4) %3) #3
  call void @_ZN9__gnu_cxx13new_allocatorIiE9constructIiJRKiEEEvPT_DpOT0_(%"class.__gnu_cxx::new_allocator"* %1, i32* %2, i32* dereferenceable(4) %call) #3
  ret void
}

; Function Attrs: noinline uwtable
define linkonce_odr dso_local void @_ZNSt6vectorIiSaIiEE17_M_realloc_insertIJRKiEEEvN9__gnu_cxx17__normal_iteratorIPiS1_EEDpOT_(%"class.std::vector"* %this, i32* %__position.coerce, i32* dereferenceable(4) %__args) #0 comdat align 2 {
entry:
  %__position = alloca %"class.__gnu_cxx::__normal_iterator", align 8
  %this.addr = alloca %"class.std::vector"*, align 8
  %__args.addr = alloca i32*, align 8
  %__len = alloca i64, align 8
  %__old_start = alloca i32*, align 8
  %__old_finish = alloca i32*, align 8
  %__elems_before = alloca i64, align 8
  %ref.tmp = alloca %"class.__gnu_cxx::__normal_iterator", align 8
  %__new_start = alloca i32*, align 8
  %__new_finish = alloca i32*, align 8
  %coerce.dive = getelementptr inbounds %"class.__gnu_cxx::__normal_iterator", %"class.__gnu_cxx::__normal_iterator"* %__position, i32 0, i32 0
  store i32* %__position.coerce, i32** %coerce.dive, align 8
  store %"class.std::vector"* %this, %"class.std::vector"** %this.addr, align 8
  store i32* %__args, i32** %__args.addr, align 8
  %this1 = load %"class.std::vector"*, %"class.std::vector"** %this.addr, align 8
  %call = call i64 @_ZNKSt6vectorIiSaIiEE12_M_check_lenEmPKc(%"class.std::vector"* %this1, i64 1, i8* getelementptr inbounds ([26 x i8], [26 x i8]* @.str.3, i32 0, i32 0))
  store i64 %call, i64* %__len, align 8
  %0 = bitcast %"class.std::vector"* %this1 to %"struct.std::_Vector_base"*
  %_M_impl = getelementptr inbounds %"struct.std::_Vector_base", %"struct.std::_Vector_base"* %0, i32 0, i32 0
  %1 = bitcast %"struct.std::_Vector_base<int, std::allocator<int> >::_Vector_impl"* %_M_impl to %"struct.std::_Vector_base<int, std::allocator<int> >::_Vector_impl_data"*
  %_M_start = getelementptr inbounds %"struct.std::_Vector_base<int, std::allocator<int> >::_Vector_impl_data", %"struct.std::_Vector_base<int, std::allocator<int> >::_Vector_impl_data"* %1, i32 0, i32 0
  %2 = load i32*, i32** %_M_start, align 8
  store i32* %2, i32** %__old_start, align 8
  %3 = bitcast %"class.std::vector"* %this1 to %"struct.std::_Vector_base"*
  %_M_impl2 = getelementptr inbounds %"struct.std::_Vector_base", %"struct.std::_Vector_base"* %3, i32 0, i32 0
  %4 = bitcast %"struct.std::_Vector_base<int, std::allocator<int> >::_Vector_impl"* %_M_impl2 to %"struct.std::_Vector_base<int, std::allocator<int> >::_Vector_impl_data"*
  %_M_finish = getelementptr inbounds %"struct.std::_Vector_base<int, std::allocator<int> >::_Vector_impl_data", %"struct.std::_Vector_base<int, std::allocator<int> >::_Vector_impl_data"* %4, i32 0, i32 1
  %5 = load i32*, i32** %_M_finish, align 8
  store i32* %5, i32** %__old_finish, align 8
  %call3 = call i32* @_ZNSt6vectorIiSaIiEE5beginEv(%"class.std::vector"* %this1) #3
  %coerce.dive4 = getelementptr inbounds %"class.__gnu_cxx::__normal_iterator", %"class.__gnu_cxx::__normal_iterator"* %ref.tmp, i32 0, i32 0
  store i32* %call3, i32** %coerce.dive4, align 8
  %call5 = call i64 @_ZN9__gnu_cxxmiIPiSt6vectorIiSaIiEEEENS_17__normal_iteratorIT_T0_E15difference_typeERKS8_SB_(%"class.__gnu_cxx::__normal_iterator"* dereferenceable(8) %__position, %"class.__gnu_cxx::__normal_iterator"* dereferenceable(8) %ref.tmp) #3
  store i64 %call5, i64* %__elems_before, align 8
  %6 = bitcast %"class.std::vector"* %this1 to %"struct.std::_Vector_base"*
  %7 = load i64, i64* %__len, align 8
  %call6 = call i32* @_ZNSt12_Vector_baseIiSaIiEE11_M_allocateEm(%"struct.std::_Vector_base"* %6, i64 %7)
  store i32* %call6, i32** %__new_start, align 8
  %8 = load i32*, i32** %__new_start, align 8
  store i32* %8, i32** %__new_finish, align 8
  %9 = bitcast %"class.std::vector"* %this1 to %"struct.std::_Vector_base"*
  %_M_impl7 = getelementptr inbounds %"struct.std::_Vector_base", %"struct.std::_Vector_base"* %9, i32 0, i32 0
  %10 = bitcast %"struct.std::_Vector_base<int, std::allocator<int> >::_Vector_impl"* %_M_impl7 to %"class.std::allocator"*
  %11 = load i32*, i32** %__new_start, align 8
  %12 = load i64, i64* %__elems_before, align 8
  %add.ptr = getelementptr inbounds i32, i32* %11, i64 %12
  %13 = load i32*, i32** %__args.addr, align 8
  %call8 = call dereferenceable(4) i32* @_ZSt7forwardIRKiEOT_RNSt16remove_referenceIS2_E4typeE(i32* dereferenceable(4) %13) #3
  call void @_ZNSt16allocator_traitsISaIiEE9constructIiJRKiEEEvRS0_PT_DpOT0_(%"class.std::allocator"* dereferenceable(1) %10, i32* %add.ptr, i32* dereferenceable(4) %call8) #3
  store i32* null, i32** %__new_finish, align 8
  %14 = load i32*, i32** %__old_start, align 8
  %call9 = call dereferenceable(8) i32** @_ZNK9__gnu_cxx17__normal_iteratorIPiSt6vectorIiSaIiEEE4baseEv(%"class.__gnu_cxx::__normal_iterator"* %__position) #3
  %15 = load i32*, i32** %call9, align 8
  %16 = load i32*, i32** %__new_start, align 8
  %17 = bitcast %"class.std::vector"* %this1 to %"struct.std::_Vector_base"*
  %call10 = call dereferenceable(1) %"class.std::allocator"* @_ZNSt12_Vector_baseIiSaIiEE19_M_get_Tp_allocatorEv(%"struct.std::_Vector_base"* %17) #3
  %call11 = call i32* @_ZNSt6vectorIiSaIiEE11_S_relocateEPiS2_S2_RS0_(i32* %14, i32* %15, i32* %16, %"class.std::allocator"* dereferenceable(1) %call10) #3
  store i32* %call11, i32** %__new_finish, align 8
  %18 = load i32*, i32** %__new_finish, align 8
  %incdec.ptr = getelementptr inbounds i32, i32* %18, i32 1
  store i32* %incdec.ptr, i32** %__new_finish, align 8
  %call12 = call dereferenceable(8) i32** @_ZNK9__gnu_cxx17__normal_iteratorIPiSt6vectorIiSaIiEEE4baseEv(%"class.__gnu_cxx::__normal_iterator"* %__position) #3
  %19 = load i32*, i32** %call12, align 8
  %20 = load i32*, i32** %__old_finish, align 8
  %21 = load i32*, i32** %__new_finish, align 8
  %22 = bitcast %"class.std::vector"* %this1 to %"struct.std::_Vector_base"*
  %call13 = call dereferenceable(1) %"class.std::allocator"* @_ZNSt12_Vector_baseIiSaIiEE19_M_get_Tp_allocatorEv(%"struct.std::_Vector_base"* %22) #3
  %call14 = call i32* @_ZNSt6vectorIiSaIiEE11_S_relocateEPiS2_S2_RS0_(i32* %19, i32* %20, i32* %21, %"class.std::allocator"* dereferenceable(1) %call13) #3
  store i32* %call14, i32** %__new_finish, align 8
  %23 = bitcast %"class.std::vector"* %this1 to %"struct.std::_Vector_base"*
  %24 = load i32*, i32** %__old_start, align 8
  %25 = bitcast %"class.std::vector"* %this1 to %"struct.std::_Vector_base"*
  %_M_impl15 = getelementptr inbounds %"struct.std::_Vector_base", %"struct.std::_Vector_base"* %25, i32 0, i32 0
  %26 = bitcast %"struct.std::_Vector_base<int, std::allocator<int> >::_Vector_impl"* %_M_impl15 to %"struct.std::_Vector_base<int, std::allocator<int> >::_Vector_impl_data"*
  %_M_end_of_storage = getelementptr inbounds %"struct.std::_Vector_base<int, std::allocator<int> >::_Vector_impl_data", %"struct.std::_Vector_base<int, std::allocator<int> >::_Vector_impl_data"* %26, i32 0, i32 2
  %27 = load i32*, i32** %_M_end_of_storage, align 8
  %28 = load i32*, i32** %__old_start, align 8
  %sub.ptr.lhs.cast = ptrtoint i32* %27 to i64
  %sub.ptr.rhs.cast = ptrtoint i32* %28 to i64
  %sub.ptr.sub = sub i64 %sub.ptr.lhs.cast, %sub.ptr.rhs.cast
  %sub.ptr.div = sdiv exact i64 %sub.ptr.sub, 4
  call void @_ZNSt12_Vector_baseIiSaIiEE13_M_deallocateEPim(%"struct.std::_Vector_base"* %23, i32* %24, i64 %sub.ptr.div)
  %29 = load i32*, i32** %__new_start, align 8
  %30 = bitcast %"class.std::vector"* %this1 to %"struct.std::_Vector_base"*
  %_M_impl16 = getelementptr inbounds %"struct.std::_Vector_base", %"struct.std::_Vector_base"* %30, i32 0, i32 0
  %31 = bitcast %"struct.std::_Vector_base<int, std::allocator<int> >::_Vector_impl"* %_M_impl16 to %"struct.std::_Vector_base<int, std::allocator<int> >::_Vector_impl_data"*
  %_M_start17 = getelementptr inbounds %"struct.std::_Vector_base<int, std::allocator<int> >::_Vector_impl_data", %"struct.std::_Vector_base<int, std::allocator<int> >::_Vector_impl_data"* %31, i32 0, i32 0
  store i32* %29, i32** %_M_start17, align 8
  %32 = load i32*, i32** %__new_finish, align 8
  %33 = bitcast %"class.std::vector"* %this1 to %"struct.std::_Vector_base"*
  %_M_impl18 = getelementptr inbounds %"struct.std::_Vector_base", %"struct.std::_Vector_base"* %33, i32 0, i32 0
  %34 = bitcast %"struct.std::_Vector_base<int, std::allocator<int> >::_Vector_impl"* %_M_impl18 to %"struct.std::_Vector_base<int, std::allocator<int> >::_Vector_impl_data"*
  %_M_finish19 = getelementptr inbounds %"struct.std::_Vector_base<int, std::allocator<int> >::_Vector_impl_data", %"struct.std::_Vector_base<int, std::allocator<int> >::_Vector_impl_data"* %34, i32 0, i32 1
  store i32* %32, i32** %_M_finish19, align 8
  %35 = load i32*, i32** %__new_start, align 8
  %36 = load i64, i64* %__len, align 8
  %add.ptr20 = getelementptr inbounds i32, i32* %35, i64 %36
  %37 = bitcast %"class.std::vector"* %this1 to %"struct.std::_Vector_base"*
  %_M_impl21 = getelementptr inbounds %"struct.std::_Vector_base", %"struct.std::_Vector_base"* %37, i32 0, i32 0
  %38 = bitcast %"struct.std::_Vector_base<int, std::allocator<int> >::_Vector_impl"* %_M_impl21 to %"struct.std::_Vector_base<int, std::allocator<int> >::_Vector_impl_data"*
  %_M_end_of_storage22 = getelementptr inbounds %"struct.std::_Vector_base<int, std::allocator<int> >::_Vector_impl_data", %"struct.std::_Vector_base<int, std::allocator<int> >::_Vector_impl_data"* %38, i32 0, i32 2
  store i32* %add.ptr20, i32** %_M_end_of_storage22, align 8
  ret void
}

; Function Attrs: noinline nounwind uwtable
define linkonce_odr dso_local void @_ZN9__gnu_cxx13new_allocatorIiE9constructIiJRKiEEEvPT_DpOT0_(%"class.__gnu_cxx::new_allocator"* %this, i32* %__p, i32* dereferenceable(4) %__args) #5 comdat align 2 {
entry:
  %this.addr = alloca %"class.__gnu_cxx::new_allocator"*, align 8
  %__p.addr = alloca i32*, align 8
  %__args.addr = alloca i32*, align 8
  store %"class.__gnu_cxx::new_allocator"* %this, %"class.__gnu_cxx::new_allocator"** %this.addr, align 8
  store i32* %__p, i32** %__p.addr, align 8
  store i32* %__args, i32** %__args.addr, align 8
  %this1 = load %"class.__gnu_cxx::new_allocator"*, %"class.__gnu_cxx::new_allocator"** %this.addr, align 8
  %0 = load i32*, i32** %__p.addr, align 8
  %1 = bitcast i32* %0 to i8*
  %2 = bitcast i8* %1 to i32*
  %3 = load i32*, i32** %__args.addr, align 8
  %call = call dereferenceable(4) i32* @_ZSt7forwardIRKiEOT_RNSt16remove_referenceIS2_E4typeE(i32* dereferenceable(4) %3) #3
  %4 = load i32, i32* %call, align 4
  store i32 %4, i32* %2, align 4
  ret void
}

; Function Attrs: noinline nounwind uwtable
define linkonce_odr dso_local dereferenceable(4) i32* @_ZSt7forwardIRKiEOT_RNSt16remove_referenceIS2_E4typeE(i32* dereferenceable(4) %__t) #5 comdat {
entry:
  %__t.addr = alloca i32*, align 8
  store i32* %__t, i32** %__t.addr, align 8
  %0 = load i32*, i32** %__t.addr, align 8
  ret i32* %0
}

; Function Attrs: noinline nounwind uwtable
define linkonce_odr dso_local i32* @_ZNSt6vectorIiSaIiEE11_S_relocateEPiS2_S2_RS0_(i32* %__first, i32* %__last, i32* %__result, %"class.std::allocator"* dereferenceable(1) %__alloc) #5 comdat align 2 {
entry:
  %__first.addr = alloca i32*, align 8
  %__last.addr = alloca i32*, align 8
  %__result.addr = alloca i32*, align 8
  %__alloc.addr = alloca %"class.std::allocator"*, align 8
  %agg.tmp = alloca %"struct.std::integral_constant", align 1
  store i32* %__first, i32** %__first.addr, align 8
  store i32* %__last, i32** %__last.addr, align 8
  store i32* %__result, i32** %__result.addr, align 8
  store %"class.std::allocator"* %__alloc, %"class.std::allocator"** %__alloc.addr, align 8
  %0 = load i32*, i32** %__first.addr, align 8
  %1 = load i32*, i32** %__last.addr, align 8
  %2 = load i32*, i32** %__result.addr, align 8
  %3 = load %"class.std::allocator"*, %"class.std::allocator"** %__alloc.addr, align 8
  %call = call i32* @_ZNSt6vectorIiSaIiEE14_S_do_relocateEPiS2_S2_RS0_St17integral_constantIbLb1EE(i32* %0, i32* %1, i32* %2, %"class.std::allocator"* dereferenceable(1) %3) #3
  ret i32* %call
}

; Function Attrs: noinline nounwind uwtable
define linkonce_odr dso_local i32* @_ZNSt6vectorIiSaIiEE14_S_do_relocateEPiS2_S2_RS0_St17integral_constantIbLb1EE(i32* %__first, i32* %__last, i32* %__result, %"class.std::allocator"* dereferenceable(1) %__alloc) #5 comdat align 2 {
entry:
  %0 = alloca %"struct.std::integral_constant", align 1
  %__first.addr = alloca i32*, align 8
  %__last.addr = alloca i32*, align 8
  %__result.addr = alloca i32*, align 8
  %__alloc.addr = alloca %"class.std::allocator"*, align 8
  store i32* %__first, i32** %__first.addr, align 8
  store i32* %__last, i32** %__last.addr, align 8
  store i32* %__result, i32** %__result.addr, align 8
  store %"class.std::allocator"* %__alloc, %"class.std::allocator"** %__alloc.addr, align 8
  %1 = load i32*, i32** %__first.addr, align 8
  %2 = load i32*, i32** %__last.addr, align 8
  %3 = load i32*, i32** %__result.addr, align 8
  %4 = load %"class.std::allocator"*, %"class.std::allocator"** %__alloc.addr, align 8
  %call = call i32* @_ZSt12__relocate_aIPiS0_SaIiEET0_T_S3_S2_RT1_(i32* %1, i32* %2, i32* %3, %"class.std::allocator"* dereferenceable(1) %4) #3
  ret i32* %call
}

; Function Attrs: noinline nounwind uwtable
define linkonce_odr dso_local i32* @_ZSt12__relocate_aIPiS0_SaIiEET0_T_S3_S2_RT1_(i32* %__first, i32* %__last, i32* %__result, %"class.std::allocator"* dereferenceable(1) %__alloc) #5 comdat {
entry:
  %__first.addr = alloca i32*, align 8
  %__last.addr = alloca i32*, align 8
  %__result.addr = alloca i32*, align 8
  %__alloc.addr = alloca %"class.std::allocator"*, align 8
  store i32* %__first, i32** %__first.addr, align 8
  store i32* %__last, i32** %__last.addr, align 8
  store i32* %__result, i32** %__result.addr, align 8
  store %"class.std::allocator"* %__alloc, %"class.std::allocator"** %__alloc.addr, align 8
  %0 = load i32*, i32** %__first.addr, align 8
  %call = call i32* @_ZSt12__niter_baseIPiET_S1_(i32* %0) #3
  %1 = load i32*, i32** %__last.addr, align 8
  %call1 = call i32* @_ZSt12__niter_baseIPiET_S1_(i32* %1) #3
  %2 = load i32*, i32** %__result.addr, align 8
  %call2 = call i32* @_ZSt12__niter_baseIPiET_S1_(i32* %2) #3
  %3 = load %"class.std::allocator"*, %"class.std::allocator"** %__alloc.addr, align 8
  %call3 = call i32* @_ZSt14__relocate_a_1IiiENSt9enable_ifIXsr3std24__is_bitwise_relocatableIT_EE5valueEPS1_E4typeES2_S2_S2_RSaIT0_E(i32* %call, i32* %call1, i32* %call2, %"class.std::allocator"* dereferenceable(1) %3) #3
  ret i32* %call3
}

; Function Attrs: noinline nounwind uwtable
define linkonce_odr dso_local i32* @_ZSt14__relocate_a_1IiiENSt9enable_ifIXsr3std24__is_bitwise_relocatableIT_EE5valueEPS1_E4typeES2_S2_S2_RSaIT0_E(i32* %__first, i32* %__last, i32* %__result, %"class.std::allocator"* dereferenceable(1)) #5 comdat {
entry:
  %__first.addr = alloca i32*, align 8
  %__last.addr = alloca i32*, align 8
  %__result.addr = alloca i32*, align 8
  %.addr = alloca %"class.std::allocator"*, align 8
  %__count = alloca i64, align 8
  store i32* %__first, i32** %__first.addr, align 8
  store i32* %__last, i32** %__last.addr, align 8
  store i32* %__result, i32** %__result.addr, align 8
  store %"class.std::allocator"* %0, %"class.std::allocator"** %.addr, align 8
  %1 = load i32*, i32** %__last.addr, align 8
  %2 = load i32*, i32** %__first.addr, align 8
  %sub.ptr.lhs.cast = ptrtoint i32* %1 to i64
  %sub.ptr.rhs.cast = ptrtoint i32* %2 to i64
  %sub.ptr.sub = sub i64 %sub.ptr.lhs.cast, %sub.ptr.rhs.cast
  %sub.ptr.div = sdiv exact i64 %sub.ptr.sub, 4
  store i64 %sub.ptr.div, i64* %__count, align 8
  %3 = load i64, i64* %__count, align 8
  %cmp = icmp sgt i64 %3, 0
  br i1 %cmp, label %if.then, label %if.end

if.then:                                          ; preds = %entry
  %4 = load i32*, i32** %__result.addr, align 8
  %5 = bitcast i32* %4 to i8*
  %6 = load i32*, i32** %__first.addr, align 8
  %7 = bitcast i32* %6 to i8*
  %8 = load i64, i64* %__count, align 8
  %mul = mul i64 %8, 4
  call void @llvm.memmove.p0i8.p0i8.i64(i8* align 4 %5, i8* align 4 %7, i64 %mul, i1 false)
  br label %if.end

if.end:                                           ; preds = %if.then, %entry
  %9 = load i32*, i32** %__result.addr, align 8
  %10 = load i64, i64* %__count, align 8
  %add.ptr = getelementptr inbounds i32, i32* %9, i64 %10
  ret i32* %add.ptr
}

; Function Attrs: noinline nounwind uwtable
define linkonce_odr dso_local void @_ZN9__gnu_cxx5__ops14_Iter_comp_valISt7greaterIiEEC2ES3_(%"struct.__gnu_cxx::__ops::_Iter_comp_val"* %this) unnamed_addr #5 comdat align 2 {
entry:
  %__comp = alloca %"struct.std::greater", align 1
  %this.addr = alloca %"struct.__gnu_cxx::__ops::_Iter_comp_val"*, align 8
