; ModuleID = 'PE-benchmarks/trie-suffixes.cpp'
source_filename = "PE-benchmarks/trie-suffixes.cpp"
target datalayout = "e-m:e-i64:64-f80:128-n8:16:32:64-S128"
target triple = "x86_64-unknown-linux-gnu"

%"class.std::ios_base::Init" = type { i8 }
%"class.std::basic_ostream" = type { i32 (...)**, %"class.std::basic_ios" }
%"class.std::basic_ios" = type { %"class.std::ios_base", %"class.std::basic_ostream"*, i8, i8, %"class.std::basic_streambuf"*, %"class.std::ctype"*, %"class.std::num_put"*, %"class.std::num_get"* }
%"class.std::ios_base" = type { i32 (...)**, i64, i64, i32, i32, i32, %"struct.std::ios_base::_Callback_list"*, %"struct.std::ios_base::_Words", [8 x %"struct.std::ios_base::_Words"], i32, %"struct.std::ios_base::_Words"*, %"class.std::locale" }
%"struct.std::ios_base::_Callback_list" = type { %"struct.std::ios_base::_Callback_list"*, void (i32, %"class.std::ios_base"*, i32)*, i32, i32 }
%"struct.std::ios_base::_Words" = type { i8*, i64 }
%"class.std::locale" = type { %"class.std::locale::_Impl"* }
%"class.std::locale::_Impl" = type { i32, %"class.std::locale::facet"**, i64, %"class.std::locale::facet"**, i8** }
%"class.std::locale::facet" = type <{ i32 (...)**, i32, [4 x i8] }>
%"class.std::basic_streambuf" = type { i32 (...)**, i8*, i8*, i8*, i8*, i8*, i8*, %"class.std::locale" }
%"class.std::ctype" = type <{ %"class.std::locale::facet.base", [4 x i8], %struct.__locale_struct*, i8, [7 x i8], i32*, i32*, i16*, i8, [256 x i8], [256 x i8], i8, [6 x i8] }>
%"class.std::locale::facet.base" = type <{ i32 (...)**, i32 }>
%struct.__locale_struct = type { [13 x %struct.__locale_data*], i16*, i32*, i32*, [13 x i8*] }
%struct.__locale_data = type opaque
%"class.std::num_put" = type { %"class.std::locale::facet.base", [4 x i8] }
%"class.std::num_get" = type { %"class.std::locale::facet.base", [4 x i8] }
%class.SuffixTrieNode = type { [256 x %class.SuffixTrieNode*], %"class.std::__cxx11::list"* }
%"class.std::__cxx11::list" = type { %"class.std::__cxx11::_List_base" }
%"class.std::__cxx11::_List_base" = type { %"struct.std::__cxx11::_List_base<int, std::allocator<int> >::_List_impl" }
%"struct.std::__cxx11::_List_base<int, std::allocator<int> >::_List_impl" = type { %"struct.std::__detail::_List_node_header" }
%"struct.std::__detail::_List_node_header" = type { %"struct.std::__detail::_List_node_base", i64 }
%"struct.std::__detail::_List_node_base" = type { %"struct.std::__detail::_List_node_base"*, %"struct.std::__detail::_List_node_base"* }
%"class.std::__cxx11::basic_string" = type { %"struct.std::__cxx11::basic_string<char, std::char_traits<char>, std::allocator<char> >::_Alloc_hider", i64, %union.anon }
%"struct.std::__cxx11::basic_string<char, std::char_traits<char>, std::allocator<char> >::_Alloc_hider" = type { i8* }
%union.anon = type { i64, [8 x i8] }
%"struct.std::_List_iterator" = type { %"struct.std::__detail::_List_node_base"* }
%class.SuffixTrie = type { %class.SuffixTrieNode }
%"struct.std::_List_node" = type <{ %"struct.std::__detail::_List_node_base", %"struct.__gnu_cxx::__aligned_membuf", [4 x i8] }>
%"struct.__gnu_cxx::__aligned_membuf" = type { [4 x i8] }
%"class.std::allocator.0" = type { i8 }
%"class.std::allocator" = type { i8 }
%"class.__gnu_cxx::new_allocator" = type { i8 }
%"struct.std::__allocated_ptr" = type { %"class.std::allocator"*, %"struct.std::_List_node"* }

$_ZNSt7__cxx114listIiSaIiEE9push_backERKi = comdat any

$_ZN14SuffixTrieNodeC2Ev = comdat any

$_ZNSt14_List_iteratorIiEC2Ev = comdat any

$_ZNSt7__cxx114listIiSaIiEE5beginEv = comdat any

$_ZStneRKSt14_List_iteratorIiES2_ = comdat any

$_ZNSt7__cxx114listIiSaIiEE3endEv = comdat any

$_ZNKSt14_List_iteratorIiEdeEv = comdat any

$_ZNSt14_List_iteratorIiEppEv = comdat any

$_ZN10SuffixTrieC2ENSt7__cxx1112basic_stringIcSt11char_traitsIcESaIcEEE = comdat any

$_ZNSt7__cxx114listIiSaIiEEC2Ev = comdat any

$_ZNSt7__cxx1110_List_baseIiSaIiEEC2Ev = comdat any

$_ZNSt7__cxx1110_List_baseIiSaIiEE10_List_implC2Ev = comdat any

$_ZNSaISt10_List_nodeIiEEC2Ev = comdat any

$_ZNSt8__detail17_List_node_headerC2Ev = comdat any

$_ZN9__gnu_cxx13new_allocatorISt10_List_nodeIiEEC2Ev = comdat any

$_ZNSt8__detail17_List_node_header7_M_initEv = comdat any

$_ZNSt7__cxx114listIiSaIiEE9_M_insertIJRKiEEEvSt14_List_iteratorIiEDpOT_ = comdat any

$_ZNSt7__cxx114listIiSaIiEE14_M_create_nodeIJRKiEEEPSt10_List_nodeIiEDpOT_ = comdat any

$_ZSt7forwardIRKiEOT_RNSt16remove_referenceIS2_E4typeE = comdat any

$_ZNSt7__cxx1110_List_baseIiSaIiEE11_M_inc_sizeEm = comdat any

$_ZNSt7__cxx1110_List_baseIiSaIiEE11_M_get_nodeEv = comdat any

$_ZNSt7__cxx1110_List_baseIiSaIiEE21_M_get_Node_allocatorEv = comdat any

$_ZNSt15__allocated_ptrISaISt10_List_nodeIiEEEC2ERS2_PS1_ = comdat any

$_ZNSt16allocator_traitsISaISt10_List_nodeIiEEE9constructIiJRKiEEEvRS2_PT_DpOT0_ = comdat any

$_ZNSt10_List_nodeIiE9_M_valptrEv = comdat any

$_ZNSt15__allocated_ptrISaISt10_List_nodeIiEEEaSEDn = comdat any

$_ZNSt15__allocated_ptrISaISt10_List_nodeIiEEED2Ev = comdat any

$_ZNSt16allocator_traitsISaISt10_List_nodeIiEEE8allocateERS2_m = comdat any

$_ZN9__gnu_cxx13new_allocatorISt10_List_nodeIiEE8allocateEmPKv = comdat any

$_ZNK9__gnu_cxx13new_allocatorISt10_List_nodeIiEE11_M_max_sizeEv = comdat any

$_ZSt11__addressofISaISt10_List_nodeIiEEEPT_RS3_ = comdat any

$_ZN9__gnu_cxx13new_allocatorISt10_List_nodeIiEE9constructIiJRKiEEEvPT_DpOT0_ = comdat any

$_ZN9__gnu_cxx16__aligned_membufIiE6_M_ptrEv = comdat any

$_ZN9__gnu_cxx16__aligned_membufIiE7_M_addrEv = comdat any

$_ZNSt16allocator_traitsISaISt10_List_nodeIiEEE10deallocateERS2_PS1_m = comdat any

$__clang_call_terminate = comdat any

$_ZN9__gnu_cxx13new_allocatorISt10_List_nodeIiEE10deallocateEPS2_m = comdat any

$_ZNSt14_List_iteratorIiEC2EPNSt8__detail15_List_node_baseE = comdat any

@_ZStL8__ioinit = internal global %"class.std::ios_base::Init" zeroinitializer, align 1
@__dso_handle = external hidden global i8
@_ZSt4cout = external dso_local global %"class.std::basic_ostream", align 8
@.str = private unnamed_addr constant [18 x i8] c"Pattern not found\00", align 1
@.str.1 = private unnamed_addr constant [27 x i8] c"Pattern found at position \00", align 1
@.str.2 = private unnamed_addr constant [18 x i8] c"geeksforgeeks.org\00", align 1
@.str.3 = private unnamed_addr constant [16 x i8] c"Search for 'ee'\00", align 1
@.str.4 = private unnamed_addr constant [3 x i8] c"ee\00", align 1
@.str.5 = private unnamed_addr constant [19 x i8] c"\0ASearch for 'geek'\00", align 1
@.str.6 = private unnamed_addr constant [5 x i8] c"geek\00", align 1
@.str.7 = private unnamed_addr constant [19 x i8] c"\0ASearch for 'quiz'\00", align 1
@.str.8 = private unnamed_addr constant [5 x i8] c"quiz\00", align 1
@.str.9 = private unnamed_addr constant [23 x i8] c"\0ASearch for 'forgeeks'\00", align 1
@.str.10 = private unnamed_addr constant [9 x i8] c"forgeeks\00", align 1
@llvm.global_ctors = appending global [1 x { i32, void ()*, i8* }] [{ i32, void ()*, i8* } { i32 65535, void ()* @_GLOBAL__sub_I_trie_suffixes.cpp, i8* null }]

; Function Attrs: noinline uwtable
define internal void @__cxx_global_var_init() #0 section ".text.startup" {
entry:
  call void @_ZNSt8ios_base4InitC1Ev(%"class.std::ios_base::Init"* @_ZStL8__ioinit)
  %0 = call i32 @__cxa_atexit(void (i8*)* bitcast (void (%"class.std::ios_base::Init"*)* @_ZNSt8ios_base4InitD1Ev to void (i8*)*), i8* getelementptr inbounds (%"class.std::ios_base::Init", %"class.std::ios_base::Init"* @_ZStL8__ioinit, i32 0, i32 0), i8* @__dso_handle) #3
  ret void
}

declare dso_local void @_ZNSt8ios_base4InitC1Ev(%"class.std::ios_base::Init"*) unnamed_addr #1

; Function Attrs: nounwind
declare dso_local void @_ZNSt8ios_base4InitD1Ev(%"class.std::ios_base::Init"*) unnamed_addr #2

; Function Attrs: nounwind
declare dso_local i32 @__cxa_atexit(void (i8*)*, i8*, i8*) #3

; Function Attrs: noinline uwtable
define dso_local void @_ZN14SuffixTrieNode12insertSuffixENSt7__cxx1112basic_stringIcSt11char_traitsIcESaIcEEEi(%class.SuffixTrieNode* %this, %"class.std::__cxx11::basic_string"* %s, i32 %index) #0 align 2 personality i8* bitcast (i32 (...)* @__gxx_personality_v0 to i8*) {
entry:
  %this.addr = alloca %class.SuffixTrieNode*, align 8
  %index.addr = alloca i32, align 4
  %cIndex = alloca i8, align 1
  %exn.slot = alloca i8*
  %ehselector.slot = alloca i32
  %agg.tmp = alloca %"class.std::__cxx11::basic_string", align 8
  store %class.SuffixTrieNode* %this, %class.SuffixTrieNode** %this.addr, align 8
  store i32 %index, i32* %index.addr, align 4
  %this1 = load %class.SuffixTrieNode*, %class.SuffixTrieNode** %this.addr, align 8
  %indexes = getelementptr inbounds %class.SuffixTrieNode, %class.SuffixTrieNode* %this1, i32 0, i32 1
  %0 = load %"class.std::__cxx11::list"*, %"class.std::__cxx11::list"** %indexes, align 8
  call void @_ZNSt7__cxx114listIiSaIiEE9push_backERKi(%"class.std::__cxx11::list"* %0, i32* dereferenceable(4) %index.addr)
  %call = call i64 @_ZNKSt7__cxx1112basic_stringIcSt11char_traitsIcESaIcEE6lengthEv(%"class.std::__cxx11::basic_string"* %s) #3
  %cmp = icmp ugt i64 %call, 0
  br i1 %cmp, label %if.then, label %if.end14

if.then:                                          ; preds = %entry
  %call2 = call dereferenceable(1) i8* @_ZNSt7__cxx1112basic_stringIcSt11char_traitsIcESaIcEE2atEm(%"class.std::__cxx11::basic_string"* %s, i64 0)
  %1 = load i8, i8* %call2, align 1
  store i8 %1, i8* %cIndex, align 1
  %children = getelementptr inbounds %class.SuffixTrieNode, %class.SuffixTrieNode* %this1, i32 0, i32 0
  %2 = load i8, i8* %cIndex, align 1
  %idxprom = sext i8 %2 to i64
  %arrayidx = getelementptr inbounds [256 x %class.SuffixTrieNode*], [256 x %class.SuffixTrieNode*]* %children, i64 0, i64 %idxprom
  %3 = load %class.SuffixTrieNode*, %class.SuffixTrieNode** %arrayidx, align 8
  %cmp3 = icmp eq %class.SuffixTrieNode* %3, null
  br i1 %cmp3, label %if.then4, label %if.end

if.then4:                                         ; preds = %if.then
  %call5 = call i8* @_Znwm(i64 2056) #11
  %4 = bitcast i8* %call5 to %class.SuffixTrieNode*
  invoke void @_ZN14SuffixTrieNodeC2Ev(%class.SuffixTrieNode* %4)
          to label %invoke.cont unwind label %lpad

invoke.cont:                                      ; preds = %if.then4
  %children6 = getelementptr inbounds %class.SuffixTrieNode, %class.SuffixTrieNode* %this1, i32 0, i32 0
  %5 = load i8, i8* %cIndex, align 1
  %idxprom7 = sext i8 %5 to i64
  %arrayidx8 = getelementptr inbounds [256 x %class.SuffixTrieNode*], [256 x %class.SuffixTrieNode*]* %children6, i64 0, i64 %idxprom7
  store %class.SuffixTrieNode* %4, %class.SuffixTrieNode** %arrayidx8, align 8
  br label %if.end

lpad:                                             ; preds = %if.then4
  %6 = landingpad { i8*, i32 }
          cleanup
  %7 = extractvalue { i8*, i32 } %6, 0
  store i8* %7, i8** %exn.slot, align 8
  %8 = extractvalue { i8*, i32 } %6, 1
  store i32 %8, i32* %ehselector.slot, align 4
  call void @_ZdlPv(i8* %call5) #12
  br label %eh.resume

if.end:                                           ; preds = %invoke.cont, %if.then
  %children9 = getelementptr inbounds %class.SuffixTrieNode, %class.SuffixTrieNode* %this1, i32 0, i32 0
  %9 = load i8, i8* %cIndex, align 1
  %idxprom10 = sext i8 %9 to i64
  %arrayidx11 = getelementptr inbounds [256 x %class.SuffixTrieNode*], [256 x %class.SuffixTrieNode*]* %children9, i64 0, i64 %idxprom10
  %10 = load %class.SuffixTrieNode*, %class.SuffixTrieNode** %arrayidx11, align 8
  call void @_ZNKSt7__cxx1112basic_stringIcSt11char_traitsIcESaIcEE6substrEmm(%"class.std::__cxx11::basic_string"* sret %agg.tmp, %"class.std::__cxx11::basic_string"* %s, i64 1, i64 -1)
  %11 = load i32, i32* %index.addr, align 4
  %add = add nsw i32 %11, 1
  invoke void @_ZN14SuffixTrieNode12insertSuffixENSt7__cxx1112basic_stringIcSt11char_traitsIcESaIcEEEi(%class.SuffixTrieNode* %10, %"class.std::__cxx11::basic_string"* %agg.tmp, i32 %add)
          to label %invoke.cont13 unwind label %lpad12

invoke.cont13:                                    ; preds = %if.end
  call void @_ZNSt7__cxx1112basic_stringIcSt11char_traitsIcESaIcEED1Ev(%"class.std::__cxx11::basic_string"* %agg.tmp) #3
  br label %if.end14

lpad12:                                           ; preds = %if.end
  %12 = landingpad { i8*, i32 }
          cleanup
  %13 = extractvalue { i8*, i32 } %12, 0
  store i8* %13, i8** %exn.slot, align 8
  %14 = extractvalue { i8*, i32 } %12, 1
  store i32 %14, i32* %ehselector.slot, align 4
  call void @_ZNSt7__cxx1112basic_stringIcSt11char_traitsIcESaIcEED1Ev(%"class.std::__cxx11::basic_string"* %agg.tmp) #3
  br label %eh.resume

if.end14:                                         ; preds = %invoke.cont13, %entry
  ret void

eh.resume:                                        ; preds = %lpad12, %lpad
  %exn = load i8*, i8** %exn.slot, align 8
  %sel = load i32, i32* %ehselector.slot, align 4
  %lpad.val = insertvalue { i8*, i32 } undef, i8* %exn, 0
  %lpad.val15 = insertvalue { i8*, i32 } %lpad.val, i32 %sel, 1
  resume { i8*, i32 } %lpad.val15
}

; Function Attrs: noinline uwtable
define linkonce_odr dso_local void @_ZNSt7__cxx114listIiSaIiEE9push_backERKi(%"class.std::__cxx11::list"* %this, i32* dereferenceable(4) %__x) #0 comdat align 2 {
entry:
  %this.addr = alloca %"class.std::__cxx11::list"*, align 8
  %__x.addr = alloca i32*, align 8
  %agg.tmp = alloca %"struct.std::_List_iterator", align 8
  store %"class.std::__cxx11::list"* %this, %"class.std::__cxx11::list"** %this.addr, align 8
  store i32* %__x, i32** %__x.addr, align 8
  %this1 = load %"class.std::__cxx11::list"*, %"class.std::__cxx11::list"** %this.addr, align 8
  %call = call %"struct.std::__detail::_List_node_base"* @_ZNSt7__cxx114listIiSaIiEE3endEv(%"class.std::__cxx11::list"* %this1) #3
  %coerce.dive = getelementptr inbounds %"struct.std::_List_iterator", %"struct.std::_List_iterator"* %agg.tmp, i32 0, i32 0
  store %"struct.std::__detail::_List_node_base"* %call, %"struct.std::__detail::_List_node_base"** %coerce.dive, align 8
  %0 = load i32*, i32** %__x.addr, align 8
  %coerce.dive2 = getelementptr inbounds %"struct.std::_List_iterator", %"struct.std::_List_iterator"* %agg.tmp, i32 0, i32 0
  %1 = load %"struct.std::__detail::_List_node_base"*, %"struct.std::__detail::_List_node_base"** %coerce.dive2, align 8
  call void @_ZNSt7__cxx114listIiSaIiEE9_M_insertIJRKiEEEvSt14_List_iteratorIiEDpOT_(%"class.std::__cxx11::list"* %this1, %"struct.std::__detail::_List_node_base"* %1, i32* dereferenceable(4) %0)
  ret void
}

; Function Attrs: nounwind
declare dso_local i64 @_ZNKSt7__cxx1112basic_stringIcSt11char_traitsIcESaIcEE6lengthEv(%"class.std::__cxx11::basic_string"*) #2

declare dso_local dereferenceable(1) i8* @_ZNSt7__cxx1112basic_stringIcSt11char_traitsIcESaIcEE2atEm(%"class.std::__cxx11::basic_string"*, i64) #1

; Function Attrs: nobuiltin
declare dso_local noalias i8* @_Znwm(i64) #4

; Function Attrs: noinline uwtable
define linkonce_odr dso_local void @_ZN14SuffixTrieNodeC2Ev(%class.SuffixTrieNode* %this) unnamed_addr #0 comdat align 2 {
entry:
  %this.addr = alloca %class.SuffixTrieNode*, align 8
  %i = alloca i32, align 4
  store %class.SuffixTrieNode* %this, %class.SuffixTrieNode** %this.addr, align 8
  %this1 = load %class.SuffixTrieNode*, %class.SuffixTrieNode** %this.addr, align 8
  %call = call i8* @_Znwm(i64 24) #11
  %0 = bitcast i8* %call to %"class.std::__cxx11::list"*
  call void @_ZNSt7__cxx114listIiSaIiEEC2Ev(%"class.std::__cxx11::list"* %0) #3
  %indexes = getelementptr inbounds %class.SuffixTrieNode, %class.SuffixTrieNode* %this1, i32 0, i32 1
  store %"class.std::__cxx11::list"* %0, %"class.std::__cxx11::list"** %indexes, align 8
  store i32 0, i32* %i, align 4
  br label %for.cond

for.cond:                                         ; preds = %for.inc, %entry
  %1 = load i32, i32* %i, align 4
  %cmp = icmp slt i32 %1, 256
  br i1 %cmp, label %for.body, label %for.end

for.body:                                         ; preds = %for.cond
  %children = getelementptr inbounds %class.SuffixTrieNode, %class.SuffixTrieNode* %this1, i32 0, i32 0
  %2 = load i32, i32* %i, align 4
  %idxprom = sext i32 %2 to i64
  %arrayidx = getelementptr inbounds [256 x %class.SuffixTrieNode*], [256 x %class.SuffixTrieNode*]* %children, i64 0, i64 %idxprom
  store %class.SuffixTrieNode* null, %class.SuffixTrieNode** %arrayidx, align 8
  br label %for.inc

for.inc:                                          ; preds = %for.body
  %3 = load i32, i32* %i, align 4
  %inc = add nsw i32 %3, 1
  store i32 %inc, i32* %i, align 4
  br label %for.cond

for.end:                                          ; preds = %for.cond
  ret void
}

declare dso_local i32 @__gxx_personality_v0(...)

; Function Attrs: nobuiltin nounwind
declare dso_local void @_ZdlPv(i8*) #5

declare dso_local void @_ZNKSt7__cxx1112basic_stringIcSt11char_traitsIcESaIcEE6substrEmm(%"class.std::__cxx11::basic_string"* sret, %"class.std::__cxx11::basic_string"*, i64, i64) #1

; Function Attrs: nounwind
declare dso_local void @_ZNSt7__cxx1112basic_stringIcSt11char_traitsIcESaIcEED1Ev(%"class.std::__cxx11::basic_string"*) unnamed_addr #2

; Function Attrs: noinline uwtable
define dso_local %"class.std::__cxx11::list"* @_ZN14SuffixTrieNode6searchENSt7__cxx1112basic_stringIcSt11char_traitsIcESaIcEEE(%class.SuffixTrieNode* %this, %"class.std::__cxx11::basic_string"* %s) #0 align 2 personality i8* bitcast (i32 (...)* @__gxx_personality_v0 to i8*) {
entry:
  %retval = alloca %"class.std::__cxx11::list"*, align 8
  %this.addr = alloca %class.SuffixTrieNode*, align 8
  %agg.tmp = alloca %"class.std::__cxx11::basic_string", align 8
  %exn.slot = alloca i8*
  %ehselector.slot = alloca i32
  store %class.SuffixTrieNode* %this, %class.SuffixTrieNode** %this.addr, align 8
  %this1 = load %class.SuffixTrieNode*, %class.SuffixTrieNode** %this.addr, align 8
  %call = call i64 @_ZNKSt7__cxx1112basic_stringIcSt11char_traitsIcESaIcEE6lengthEv(%"class.std::__cxx11::basic_string"* %s) #3
  %cmp = icmp eq i64 %call, 0
  br i1 %cmp, label %if.then, label %if.end

if.then:                                          ; preds = %entry
  %indexes = getelementptr inbounds %class.SuffixTrieNode, %class.SuffixTrieNode* %this1, i32 0, i32 1
  %0 = load %"class.std::__cxx11::list"*, %"class.std::__cxx11::list"** %indexes, align 8
  store %"class.std::__cxx11::list"* %0, %"class.std::__cxx11::list"** %retval, align 8
  br label %return

if.end:                                           ; preds = %entry
  %children = getelementptr inbounds %class.SuffixTrieNode, %class.SuffixTrieNode* %this1, i32 0, i32 0
  %call2 = call dereferenceable(1) i8* @_ZNSt7__cxx1112basic_stringIcSt11char_traitsIcESaIcEE2atEm(%"class.std::__cxx11::basic_string"* %s, i64 0)
  %1 = load i8, i8* %call2, align 1
  %idxprom = sext i8 %1 to i64
  %arrayidx = getelementptr inbounds [256 x %class.SuffixTrieNode*], [256 x %class.SuffixTrieNode*]* %children, i64 0, i64 %idxprom
  %2 = load %class.SuffixTrieNode*, %class.SuffixTrieNode** %arrayidx, align 8
  %cmp3 = icmp ne %class.SuffixTrieNode* %2, null
  br i1 %cmp3, label %if.then4, label %if.else

if.then4:                                         ; preds = %if.end
  %children5 = getelementptr inbounds %class.SuffixTrieNode, %class.SuffixTrieNode* %this1, i32 0, i32 0
  %call6 = call dereferenceable(1) i8* @_ZNSt7__cxx1112basic_stringIcSt11char_traitsIcESaIcEE2atEm(%"class.std::__cxx11::basic_string"* %s, i64 0)
  %3 = load i8, i8* %call6, align 1
  %idxprom7 = sext i8 %3 to i64
  %arrayidx8 = getelementptr inbounds [256 x %class.SuffixTrieNode*], [256 x %class.SuffixTrieNode*]* %children5, i64 0, i64 %idxprom7
  %4 = load %class.SuffixTrieNode*, %class.SuffixTrieNode** %arrayidx8, align 8
  call void @_ZNKSt7__cxx1112basic_stringIcSt11char_traitsIcESaIcEE6substrEmm(%"class.std::__cxx11::basic_string"* sret %agg.tmp, %"class.std::__cxx11::basic_string"* %s, i64 1, i64 -1)
  %call9 = invoke %"class.std::__cxx11::list"* @_ZN14SuffixTrieNode6searchENSt7__cxx1112basic_stringIcSt11char_traitsIcESaIcEEE(%class.SuffixTrieNode* %4, %"class.std::__cxx11::basic_string"* %agg.tmp)
          to label %invoke.cont unwind label %lpad

invoke.cont:                                      ; preds = %if.then4
  store %"class.std::__cxx11::list"* %call9, %"class.std::__cxx11::list"** %retval, align 8
  call void @_ZNSt7__cxx1112basic_stringIcSt11char_traitsIcESaIcEED1Ev(%"class.std::__cxx11::basic_string"* %agg.tmp) #3
  br label %return

lpad:                                             ; preds = %if.then4
  %5 = landingpad { i8*, i32 }
          cleanup
  %6 = extractvalue { i8*, i32 } %5, 0
  store i8* %6, i8** %exn.slot, align 8
  %7 = extractvalue { i8*, i32 } %5, 1
  store i32 %7, i32* %ehselector.slot, align 4
  call void @_ZNSt7__cxx1112basic_stringIcSt11char_traitsIcESaIcEED1Ev(%"class.std::__cxx11::basic_string"* %agg.tmp) #3
  br label %eh.resume

if.else:                                          ; preds = %if.end
  store %"class.std::__cxx11::list"* null, %"class.std::__cxx11::list"** %retval, align 8
  br label %return

return:                                           ; preds = %if.else, %invoke.cont, %if.then
  %8 = load %"class.std::__cxx11::list"*, %"class.std::__cxx11::list"** %retval, align 8
  ret %"class.std::__cxx11::list"* %8

eh.resume:                                        ; preds = %lpad
  %exn = load i8*, i8** %exn.slot, align 8
  %sel = load i32, i32* %ehselector.slot, align 4
  %lpad.val = insertvalue { i8*, i32 } undef, i8* %exn, 0
  %lpad.val10 = insertvalue { i8*, i32 } %lpad.val, i32 %sel, 1
  resume { i8*, i32 } %lpad.val10
}

; Function Attrs: noinline uwtable
define dso_local void @_ZN10SuffixTrie6searchENSt7__cxx1112basic_stringIcSt11char_traitsIcESaIcEEE(%class.SuffixTrie* %this, %"class.std::__cxx11::basic_string"* %pat) #0 align 2 personality i8* bitcast (i32 (...)* @__gxx_personality_v0 to i8*) {
entry:
  %this.addr = alloca %class.SuffixTrie*, align 8
  %result = alloca %"class.std::__cxx11::list"*, align 8
  %agg.tmp = alloca %"class.std::__cxx11::basic_string", align 8
  %exn.slot = alloca i8*
  %ehselector.slot = alloca i32
  %i = alloca %"struct.std::_List_iterator", align 8
  %patLen = alloca i32, align 4
  %ref.tmp = alloca %"struct.std::_List_iterator", align 8
  %ref.tmp6 = alloca %"struct.std::_List_iterator", align 8
  store %class.SuffixTrie* %this, %class.SuffixTrie** %this.addr, align 8
  %this1 = load %class.SuffixTrie*, %class.SuffixTrie** %this.addr, align 8
  %root = getelementptr inbounds %class.SuffixTrie, %class.SuffixTrie* %this1, i32 0, i32 0
  call void @_ZNSt7__cxx1112basic_stringIcSt11char_traitsIcESaIcEEC1ERKS4_(%"class.std::__cxx11::basic_string"* %agg.tmp, %"class.std::__cxx11::basic_string"* dereferenceable(32) %pat)
  %call = invoke %"class.std::__cxx11::list"* @_ZN14SuffixTrieNode6searchENSt7__cxx1112basic_stringIcSt11char_traitsIcESaIcEEE(%class.SuffixTrieNode* %root, %"class.std::__cxx11::basic_string"* %agg.tmp)
          to label %invoke.cont unwind label %lpad

invoke.cont:                                      ; preds = %entry
  call void @_ZNSt7__cxx1112basic_stringIcSt11char_traitsIcESaIcEED1Ev(%"class.std::__cxx11::basic_string"* %agg.tmp) #3
  store %"class.std::__cxx11::list"* %call, %"class.std::__cxx11::list"** %result, align 8
  %0 = load %"class.std::__cxx11::list"*, %"class.std::__cxx11::list"** %result, align 8
  %cmp = icmp eq %"class.std::__cxx11::list"* %0, null
  br i1 %cmp, label %if.then, label %if.else

if.then:                                          ; preds = %invoke.cont
  %call2 = call dereferenceable(272) %"class.std::basic_ostream"* @_ZStlsISt11char_traitsIcEERSt13basic_ostreamIcT_ES5_PKc(%"class.std::basic_ostream"* dereferenceable(272) @_ZSt4cout, i8* getelementptr inbounds ([18 x i8], [18 x i8]* @.str, i32 0, i32 0))
  %call3 = call dereferenceable(272) %"class.std::basic_ostream"* @_ZNSolsEPFRSoS_E(%"class.std::basic_ostream"* %call2, %"class.std::basic_ostream"* (%"class.std::basic_ostream"*)* @_ZSt4endlIcSt11char_traitsIcEERSt13basic_ostreamIT_T0_ES6_)
  br label %if.end

lpad:                                             ; preds = %entry
  %1 = landingpad { i8*, i32 }
          cleanup
  %2 = extractvalue { i8*, i32 } %1, 0
  store i8* %2, i8** %exn.slot, align 8
  %3 = extractvalue { i8*, i32 } %1, 1
  store i32 %3, i32* %ehselector.slot, align 4
  call void @_ZNSt7__cxx1112basic_stringIcSt11char_traitsIcESaIcEED1Ev(%"class.std::__cxx11::basic_string"* %agg.tmp) #3
  br label %eh.resume

if.else:                                          ; preds = %invoke.cont
  call void @_ZNSt14_List_iteratorIiEC2Ev(%"struct.std::_List_iterator"* %i) #3
  %call4 = call i64 @_ZNKSt7__cxx1112basic_stringIcSt11char_traitsIcESaIcEE6lengthEv(%"class.std::__cxx11::basic_string"* %pat) #3
  %conv = trunc i64 %call4 to i32
  store i32 %conv, i32* %patLen, align 4
  %4 = load %"class.std::__cxx11::list"*, %"class.std::__cxx11::list"** %result, align 8
  %call5 = call %"struct.std::__detail::_List_node_base"* @_ZNSt7__cxx114listIiSaIiEE5beginEv(%"class.std::__cxx11::list"* %4) #3
  %coerce.dive = getelementptr inbounds %"struct.std::_List_iterator", %"struct.std::_List_iterator"* %ref.tmp, i32 0, i32 0
  store %"struct.std::__detail::_List_node_base"* %call5, %"struct.std::__detail::_List_node_base"** %coerce.dive, align 8
  %5 = bitcast %"struct.std::_List_iterator"* %i to i8*
  %6 = bitcast %"struct.std::_List_iterator"* %ref.tmp to i8*
  call void @llvm.memcpy.p0i8.p0i8.i64(i8* align 8 %5, i8* align 8 %6, i64 8, i1 false)
  br label %for.cond

for.cond:                                         ; preds = %for.inc, %if.else
  %7 = load %"class.std::__cxx11::list"*, %"class.std::__cxx11::list"** %result, align 8
  %call7 = call %"struct.std::__detail::_List_node_base"* @_ZNSt7__cxx114listIiSaIiEE3endEv(%"class.std::__cxx11::list"* %7) #3
  %coerce.dive8 = getelementptr inbounds %"struct.std::_List_iterator", %"struct.std::_List_iterator"* %ref.tmp6, i32 0, i32 0
  store %"struct.std::__detail::_List_node_base"* %call7, %"struct.std::__detail::_List_node_base"** %coerce.dive8, align 8
  %call9 = call zeroext i1 @_ZStneRKSt14_List_iteratorIiES2_(%"struct.std::_List_iterator"* dereferenceable(8) %i, %"struct.std::_List_iterator"* dereferenceable(8) %ref.tmp6) #3
  br i1 %call9, label %for.body, label %for.end

for.body:                                         ; preds = %for.cond
  %call10 = call dereferenceable(272) %"class.std::basic_ostream"* @_ZStlsISt11char_traitsIcEERSt13basic_ostreamIcT_ES5_PKc(%"class.std::basic_ostream"* dereferenceable(272) @_ZSt4cout, i8* getelementptr inbounds ([27 x i8], [27 x i8]* @.str.1, i32 0, i32 0))
  %call11 = call dereferenceable(4) i32* @_ZNKSt14_List_iteratorIiEdeEv(%"struct.std::_List_iterator"* %i) #3
  %8 = load i32, i32* %call11, align 4
  %9 = load i32, i32* %patLen, align 4
  %sub = sub nsw i32 %8, %9
  %call12 = call dereferenceable(272) %"class.std::basic_ostream"* @_ZNSolsEi(%"class.std::basic_ostream"* %call10, i32 %sub)
  %call13 = call dereferenceable(272) %"class.std::basic_ostream"* @_ZNSolsEPFRSoS_E(%"class.std::basic_ostream"* %call12, %"class.std::basic_ostream"* (%"class.std::basic_ostream"*)* @_ZSt4endlIcSt11char_traitsIcEERSt13basic_ostreamIT_T0_ES6_)
  br label %for.inc

for.inc:                                          ; preds = %for.body
  %call14 = call dereferenceable(8) %"struct.std::_List_iterator"* @_ZNSt14_List_iteratorIiEppEv(%"struct.std::_List_iterator"* %i) #3
  br label %for.cond

for.end:                                          ; preds = %for.cond
  br label %if.end

if.end:                                           ; preds = %for.end, %if.then
  ret void

eh.resume:                                        ; preds = %lpad
  %exn = load i8*, i8** %exn.slot, align 8
  %sel = load i32, i32* %ehselector.slot, align 4
  %lpad.val = insertvalue { i8*, i32 } undef, i8* %exn, 0
  %lpad.val15 = insertvalue { i8*, i32 } %lpad.val, i32 %sel, 1
  resume { i8*, i32 } %lpad.val15
}

declare dso_local void @_ZNSt7__cxx1112basic_stringIcSt11char_traitsIcESaIcEEC1ERKS4_(%"class.std::__cxx11::basic_string"*, %"class.std::__cxx11::basic_string"* dereferenceable(32)) unnamed_addr #1

declare dso_local dereferenceable(272) %"class.std::basic_ostream"* @_ZStlsISt11char_traitsIcEERSt13basic_ostreamIcT_ES5_PKc(%"class.std::basic_ostream"* dereferenceable(272), i8*) #1

declare dso_local dereferenceable(272) %"class.std::basic_ostream"* @_ZNSolsEPFRSoS_E(%"class.std::basic_ostream"*, %"class.std::basic_ostream"* (%"class.std::basic_ostream"*)*) #1

declare dso_local dereferenceable(272) %"class.std::basic_ostream"* @_ZSt4endlIcSt11char_traitsIcEERSt13basic_ostreamIT_T0_ES6_(%"class.std::basic_ostream"* dereferenceable(272)) #1

; Function Attrs: noinline nounwind uwtable
define linkonce_odr dso_local void @_ZNSt14_List_iteratorIiEC2Ev(%"struct.std::_List_iterator"* %this) unnamed_addr #6 comdat align 2 {
entry:
  %this.addr = alloca %"struct.std::_List_iterator"*, align 8
  store %"struct.std::_List_iterator"* %this, %"struct.std::_List_iterator"** %this.addr, align 8
  %this1 = load %"struct.std::_List_iterator"*, %"struct.std::_List_iterator"** %this.addr, align 8
  %_M_node = getelementptr inbounds %"struct.std::_List_iterator", %"struct.std::_List_iterator"* %this1, i32 0, i32 0
  store %"struct.std::__detail::_List_node_base"* null, %"struct.std::__detail::_List_node_base"** %_M_node, align 8
  ret void
}

; Function Attrs: noinline nounwind uwtable
define linkonce_odr dso_local %"struct.std::__detail::_List_node_base"* @_ZNSt7__cxx114listIiSaIiEE5beginEv(%"class.std::__cxx11::list"* %this) #6 comdat align 2 {
entry:
  %retval = alloca %"struct.std::_List_iterator", align 8
  %this.addr = alloca %"class.std::__cxx11::list"*, align 8
  store %"class.std::__cxx11::list"* %this, %"class.std::__cxx11::list"** %this.addr, align 8
  %this1 = load %"class.std::__cxx11::list"*, %"class.std::__cxx11::list"** %this.addr, align 8
  %0 = bitcast %"class.std::__cxx11::list"* %this1 to %"class.std::__cxx11::_List_base"*
  %_M_impl = getelementptr inbounds %"class.std::__cxx11::_List_base", %"class.std::__cxx11::_List_base"* %0, i32 0, i32 0
  %_M_node = getelementptr inbounds %"struct.std::__cxx11::_List_base<int, std::allocator<int> >::_List_impl", %"struct.std::__cxx11::_List_base<int, std::allocator<int> >::_List_impl"* %_M_impl, i32 0, i32 0
  %1 = bitcast %"struct.std::__detail::_List_node_header"* %_M_node to %"struct.std::__detail::_List_node_base"*
  %_M_next = getelementptr inbounds %"struct.std::__detail::_List_node_base", %"struct.std::__detail::_List_node_base"* %1, i32 0, i32 0
  %2 = load %"struct.std::__detail::_List_node_base"*, %"struct.std::__detail::_List_node_base"** %_M_next, align 8
  call void @_ZNSt14_List_iteratorIiEC2EPNSt8__detail15_List_node_baseE(%"struct.std::_List_iterator"* %retval, %"struct.std::__detail::_List_node_base"* %2) #3
  %coerce.dive = getelementptr inbounds %"struct.std::_List_iterator", %"struct.std::_List_iterator"* %retval, i32 0, i32 0
  %3 = load %"struct.std::__detail::_List_node_base"*, %"struct.std::__detail::_List_node_base"** %coerce.dive, align 8
  ret %"struct.std::__detail::_List_node_base"* %3
}

; Function Attrs: argmemonly nounwind
declare void @llvm.memcpy.p0i8.p0i8.i64(i8* nocapture writeonly, i8* nocapture readonly, i64, i1) #7

; Function Attrs: noinline nounwind uwtable
define linkonce_odr dso_local zeroext i1 @_ZStneRKSt14_List_iteratorIiES2_(%"struct.std::_List_iterator"* dereferenceable(8) %__x, %"struct.std::_List_iterator"* dereferenceable(8) %__y) #6 comdat {
entry:
  %__x.addr = alloca %"struct.std::_List_iterator"*, align 8
  %__y.addr = alloca %"struct.std::_List_iterator"*, align 8
  store %"struct.std::_List_iterator"* %__x, %"struct.std::_List_iterator"** %__x.addr, align 8
  store %"struct.std::_List_iterator"* %__y, %"struct.std::_List_iterator"** %__y.addr, align 8
  %0 = load %"struct.std::_List_iterator"*, %"struct.std::_List_iterator"** %__x.addr, align 8
  %_M_node = getelementptr inbounds %"struct.std::_List_iterator", %"struct.std::_List_iterator"* %0, i32 0, i32 0
  %1 = load %"struct.std::__detail::_List_node_base"*, %"struct.std::__detail::_List_node_base"** %_M_node, align 8
  %2 = load %"struct.std::_List_iterator"*, %"struct.std::_List_iterator"** %__y.addr, align 8
  %_M_node1 = getelementptr inbounds %"struct.std::_List_iterator", %"struct.std::_List_iterator"* %2, i32 0, i32 0
  %3 = load %"struct.std::__detail::_List_node_base"*, %"struct.std::__detail::_List_node_base"** %_M_node1, align 8
  %cmp = icmp ne %"struct.std::__detail::_List_node_base"* %1, %3
  ret i1 %cmp
}

; Function Attrs: noinline nounwind uwtable
define linkonce_odr dso_local %"struct.std::__detail::_List_node_base"* @_ZNSt7__cxx114listIiSaIiEE3endEv(%"class.std::__cxx11::list"* %this) #6 comdat align 2 {
entry:
  %retval = alloca %"struct.std::_List_iterator", align 8
  %this.addr = alloca %"class.std::__cxx11::list"*, align 8
  store %"class.std::__cxx11::list"* %this, %"class.std::__cxx11::list"** %this.addr, align 8
  %this1 = load %"class.std::__cxx11::list"*, %"class.std::__cxx11::list"** %this.addr, align 8
  %0 = bitcast %"class.std::__cxx11::list"* %this1 to %"class.std::__cxx11::_List_base"*
  %_M_impl = getelementptr inbounds %"class.std::__cxx11::_List_base", %"class.std::__cxx11::_List_base"* %0, i32 0, i32 0
  %_M_node = getelementptr inbounds %"struct.std::__cxx11::_List_base<int, std::allocator<int> >::_List_impl", %"struct.std::__cxx11::_List_base<int, std::allocator<int> >::_List_impl"* %_M_impl, i32 0, i32 0
  %1 = bitcast %"struct.std::__detail::_List_node_header"* %_M_node to %"struct.std::__detail::_List_node_base"*
  call void @_ZNSt14_List_iteratorIiEC2EPNSt8__detail15_List_node_baseE(%"struct.std::_List_iterator"* %retval, %"struct.std::__detail::_List_node_base"* %1) #3
  %coerce.dive = getelementptr inbounds %"struct.std::_List_iterator", %"struct.std::_List_iterator"* %retval, i32 0, i32 0
  %2 = load %"struct.std::__detail::_List_node_base"*, %"struct.std::__detail::_List_node_base"** %coerce.dive, align 8
  ret %"struct.std::__detail::_List_node_base"* %2
}

declare dso_local dereferenceable(272) %"class.std::basic_ostream"* @_ZNSolsEi(%"class.std::basic_ostream"*, i32) #1

; Function Attrs: noinline nounwind uwtable
define linkonce_odr dso_local dereferenceable(4) i32* @_ZNKSt14_List_iteratorIiEdeEv(%"struct.std::_List_iterator"* %this) #6 comdat align 2 personality i8* bitcast (i32 (...)* @__gxx_personality_v0 to i8*) {
entry:
  %this.addr = alloca %"struct.std::_List_iterator"*, align 8
  store %"struct.std::_List_iterator"* %this, %"struct.std::_List_iterator"** %this.addr, align 8
  %this1 = load %"struct.std::_List_iterator"*, %"struct.std::_List_iterator"** %this.addr, align 8
  %_M_node = getelementptr inbounds %"struct.std::_List_iterator", %"struct.std::_List_iterator"* %this1, i32 0, i32 0
  %0 = load %"struct.std::__detail::_List_node_base"*, %"struct.std::__detail::_List_node_base"** %_M_node, align 8
  %1 = bitcast %"struct.std::__detail::_List_node_base"* %0 to %"struct.std::_List_node"*
  %call = invoke i32* @_ZNSt10_List_nodeIiE9_M_valptrEv(%"struct.std::_List_node"* %1)
          to label %invoke.cont unwind label %terminate.lpad

invoke.cont:                                      ; preds = %entry
  ret i32* %call

terminate.lpad:                                   ; preds = %entry
  %2 = landingpad { i8*, i32 }
          catch i8* null
  %3 = extractvalue { i8*, i32 } %2, 0
  call void @__clang_call_terminate(i8* %3) #13
  unreachable
}

; Function Attrs: noinline nounwind uwtable
define linkonce_odr dso_local dereferenceable(8) %"struct.std::_List_iterator"* @_ZNSt14_List_iteratorIiEppEv(%"struct.std::_List_iterator"* %this) #6 comdat align 2 {
entry:
  %this.addr = alloca %"struct.std::_List_iterator"*, align 8
  store %"struct.std::_List_iterator"* %this, %"struct.std::_List_iterator"** %this.addr, align 8
  %this1 = load %"struct.std::_List_iterator"*, %"struct.std::_List_iterator"** %this.addr, align 8
  %_M_node = getelementptr inbounds %"struct.std::_List_iterator", %"struct.std::_List_iterator"* %this1, i32 0, i32 0
  %0 = load %"struct.std::__detail::_List_node_base"*, %"struct.std::__detail::_List_node_base"** %_M_node, align 8
  %_M_next = getelementptr inbounds %"struct.std::__detail::_List_node_base", %"struct.std::__detail::_List_node_base"* %0, i32 0, i32 0
  %1 = load %"struct.std::__detail::_List_node_base"*, %"struct.std::__detail::_List_node_base"** %_M_next, align 8
  %_M_node2 = getelementptr inbounds %"struct.std::_List_iterator", %"struct.std::_List_iterator"* %this1, i32 0, i32 0
  store %"struct.std::__detail::_List_node_base"* %1, %"struct.std::__detail::_List_node_base"** %_M_node2, align 8
  ret %"struct.std::_List_iterator"* %this1
}

; Function Attrs: noinline norecurse uwtable
define dso_local i32 @main() #8 personality i8* bitcast (i32 (...)* @__gxx_personality_v0 to i8*) {
entry:
  %retval = alloca i32, align 4
  %txt = alloca %"class.std::__cxx11::basic_string", align 8
  %ref.tmp = alloca %"class.std::allocator.0", align 1
  %exn.slot = alloca i8*
  %ehselector.slot = alloca i32
  %S = alloca %class.SuffixTrie, align 8
  %agg.tmp = alloca %"class.std::__cxx11::basic_string", align 8
  %agg.tmp8 = alloca %"class.std::__cxx11::basic_string", align 8
  %ref.tmp9 = alloca %"class.std::allocator.0", align 1
  %agg.tmp18 = alloca %"class.std::__cxx11::basic_string", align 8
  %ref.tmp19 = alloca %"class.std::allocator.0", align 1
  %agg.tmp30 = alloca %"class.std::__cxx11::basic_string", align 8
  %ref.tmp31 = alloca %"class.std::allocator.0", align 1
  %agg.tmp42 = alloca %"class.std::__cxx11::basic_string", align 8
  %ref.tmp43 = alloca %"class.std::allocator.0", align 1
  store i32 0, i32* %retval, align 4
  call void @_ZNSaIcEC1Ev(%"class.std::allocator.0"* %ref.tmp) #3
  invoke void @_ZNSt7__cxx1112basic_stringIcSt11char_traitsIcESaIcEEC1EPKcRKS3_(%"class.std::__cxx11::basic_string"* %txt, i8* getelementptr inbounds ([18 x i8], [18 x i8]* @.str.2, i32 0, i32 0), %"class.std::allocator.0"* dereferenceable(1) %ref.tmp)
          to label %invoke.cont unwind label %lpad

invoke.cont:                                      ; preds = %entry
  call void @_ZNSaIcED1Ev(%"class.std::allocator.0"* %ref.tmp) #3
  invoke void @_ZNSt7__cxx1112basic_stringIcSt11char_traitsIcESaIcEEC1ERKS4_(%"class.std::__cxx11::basic_string"* %agg.tmp, %"class.std::__cxx11::basic_string"* dereferenceable(32) %txt)
          to label %invoke.cont2 unwind label %lpad1

invoke.cont2:                                     ; preds = %invoke.cont
  invoke void @_ZN10SuffixTrieC2ENSt7__cxx1112basic_stringIcSt11char_traitsIcESaIcEEE(%class.SuffixTrie* %S, %"class.std::__cxx11::basic_string"* %agg.tmp)
          to label %invoke.cont4 unwind label %lpad3

invoke.cont4:                                     ; preds = %invoke.cont2
  call void @_ZNSt7__cxx1112basic_stringIcSt11char_traitsIcESaIcEED1Ev(%"class.std::__cxx11::basic_string"* %agg.tmp) #3
  %call = invoke dereferenceable(272) %"class.std::basic_ostream"* @_ZStlsISt11char_traitsIcEERSt13basic_ostreamIcT_ES5_PKc(%"class.std::basic_ostream"* dereferenceable(272) @_ZSt4cout, i8* getelementptr inbounds ([16 x i8], [16 x i8]* @.str.3, i32 0, i32 0))
          to label %invoke.cont5 unwind label %lpad1

invoke.cont5:                                     ; preds = %invoke.cont4
  %call7 = invoke dereferenceable(272) %"class.std::basic_ostream"* @_ZNSolsEPFRSoS_E(%"class.std::basic_ostream"* %call, %"class.std::basic_ostream"* (%"class.std::basic_ostream"*)* @_ZSt4endlIcSt11char_traitsIcEERSt13basic_ostreamIT_T0_ES6_)
          to label %invoke.cont6 unwind label %lpad1

invoke.cont6:                                     ; preds = %invoke.cont5
  call void @_ZNSaIcEC1Ev(%"class.std::allocator.0"* %ref.tmp9) #3
  invoke void @_ZNSt7__cxx1112basic_stringIcSt11char_traitsIcESaIcEEC1EPKcRKS3_(%"class.std::__cxx11::basic_string"* %agg.tmp8, i8* getelementptr inbounds ([3 x i8], [3 x i8]* @.str.4, i32 0, i32 0), %"class.std::allocator.0"* dereferenceable(1) %ref.tmp9)
          to label %invoke.cont11 unwind label %lpad10

invoke.cont11:                                    ; preds = %invoke.cont6
  invoke void @_ZN10SuffixTrie6searchENSt7__cxx1112basic_stringIcSt11char_traitsIcESaIcEEE(%class.SuffixTrie* %S, %"class.std::__cxx11::basic_string"* %agg.tmp8)
          to label %invoke.cont13 unwind label %lpad12

invoke.cont13:                                    ; preds = %invoke.cont11
  call void @_ZNSt7__cxx1112basic_stringIcSt11char_traitsIcESaIcEED1Ev(%"class.std::__cxx11::basic_string"* %agg.tmp8) #3
  call void @_ZNSaIcED1Ev(%"class.std::allocator.0"* %ref.tmp9) #3
  %call15 = invoke dereferenceable(272) %"class.std::basic_ostream"* @_ZStlsISt11char_traitsIcEERSt13basic_ostreamIcT_ES5_PKc(%"class.std::basic_ostream"* dereferenceable(272) @_ZSt4cout, i8* getelementptr inbounds ([19 x i8], [19 x i8]* @.str.5, i32 0, i32 0))
          to label %invoke.cont14 unwind label %lpad1

invoke.cont14:                                    ; preds = %invoke.cont13
  %call17 = invoke dereferenceable(272) %"class.std::basic_ostream"* @_ZNSolsEPFRSoS_E(%"class.std::basic_ostream"* %call15, %"class.std::basic_ostream"* (%"class.std::basic_ostream"*)* @_ZSt4endlIcSt11char_traitsIcEERSt13basic_ostreamIT_T0_ES6_)
          to label %invoke.cont16 unwind label %lpad1

invoke.cont16:                                    ; preds = %invoke.cont14
  call void @_ZNSaIcEC1Ev(%"class.std::allocator.0"* %ref.tmp19) #3
  invoke void @_ZNSt7__cxx1112basic_stringIcSt11char_traitsIcESaIcEEC1EPKcRKS3_(%"class.std::__cxx11::basic_string"* %agg.tmp18, i8* getelementptr inbounds ([5 x i8], [5 x i8]* @.str.6, i32 0, i32 0), %"class.std::allocator.0"* dereferenceable(1) %ref.tmp19)
          to label %invoke.cont21 unwind label %lpad20

invoke.cont21:                                    ; preds = %invoke.cont16
  invoke void @_ZN10SuffixTrie6searchENSt7__cxx1112basic_stringIcSt11char_traitsIcESaIcEEE(%class.SuffixTrie* %S, %"class.std::__cxx11::basic_string"* %agg.tmp18)
          to label %invoke.cont23 unwind label %lpad22

invoke.cont23:                                    ; preds = %invoke.cont21
  call void @_ZNSt7__cxx1112basic_stringIcSt11char_traitsIcESaIcEED1Ev(%"class.std::__cxx11::basic_string"* %agg.tmp18) #3
  call void @_ZNSaIcED1Ev(%"class.std::allocator.0"* %ref.tmp19) #3
  %call27 = invoke dereferenceable(272) %"class.std::basic_ostream"* @_ZStlsISt11char_traitsIcEERSt13basic_ostreamIcT_ES5_PKc(%"class.std::basic_ostream"* dereferenceable(272) @_ZSt4cout, i8* getelementptr inbounds ([19 x i8], [19 x i8]* @.str.7, i32 0, i32 0))
          to label %invoke.cont26 unwind label %lpad1

invoke.cont26:                                    ; preds = %invoke.cont23
  %call29 = invoke dereferenceable(272) %"class.std::basic_ostream"* @_ZNSolsEPFRSoS_E(%"class.std::basic_ostream"* %call27, %"class.std::basic_ostream"* (%"class.std::basic_ostream"*)* @_ZSt4endlIcSt11char_traitsIcEERSt13basic_ostreamIT_T0_ES6_)
          to label %invoke.cont28 unwind label %lpad1

invoke.cont28:                                    ; preds = %invoke.cont26
  call void @_ZNSaIcEC1Ev(%"class.std::allocator.0"* %ref.tmp31) #3
  invoke void @_ZNSt7__cxx1112basic_stringIcSt11char_traitsIcESaIcEEC1EPKcRKS3_(%"class.std::__cxx11::basic_string"* %agg.tmp30, i8* getelementptr inbounds ([5 x i8], [5 x i8]* @.str.8, i32 0, i32 0), %"class.std::allocator.0"* dereferenceable(1) %ref.tmp31)
          to label %invoke.cont33 unwind label %lpad32

invoke.cont33:                                    ; preds = %invoke.cont28
  invoke void @_ZN10SuffixTrie6searchENSt7__cxx1112basic_stringIcSt11char_traitsIcESaIcEEE(%class.SuffixTrie* %S, %"class.std::__cxx11::basic_string"* %agg.tmp30)
          to label %invoke.cont35 unwind label %lpad34

invoke.cont35:                                    ; preds = %invoke.cont33
  call void @_ZNSt7__cxx1112basic_stringIcSt11char_traitsIcESaIcEED1Ev(%"class.std::__cxx11::basic_string"* %agg.tmp30) #3
  call void @_ZNSaIcED1Ev(%"class.std::allocator.0"* %ref.tmp31) #3
  %call39 = invoke dereferenceable(272) %"class.std::basic_ostream"* @_ZStlsISt11char_traitsIcEERSt13basic_ostreamIcT_ES5_PKc(%"class.std::basic_ostream"* dereferenceable(272) @_ZSt4cout, i8* getelementptr inbounds ([23 x i8], [23 x i8]* @.str.9, i32 0, i32 0))
          to label %invoke.cont38 unwind label %lpad1

invoke.cont38:                                    ; preds = %invoke.cont35
  %call41 = invoke dereferenceable(272) %"class.std::basic_ostream"* @_ZNSolsEPFRSoS_E(%"class.std::basic_ostream"* %call39, %"class.std::basic_ostream"* (%"class.std::basic_ostream"*)* @_ZSt4endlIcSt11char_traitsIcEERSt13basic_ostreamIT_T0_ES6_)
          to label %invoke.cont40 unwind label %lpad1

invoke.cont40:                                    ; preds = %invoke.cont38
  call void @_ZNSaIcEC1Ev(%"class.std::allocator.0"* %ref.tmp43) #3
  invoke void @_ZNSt7__cxx1112basic_stringIcSt11char_traitsIcESaIcEEC1EPKcRKS3_(%"class.std::__cxx11::basic_string"* %agg.tmp42, i8* getelementptr inbounds ([9 x i8], [9 x i8]* @.str.10, i32 0, i32 0), %"class.std::allocator.0"* dereferenceable(1) %ref.tmp43)
          to label %invoke.cont45 unwind label %lpad44

invoke.cont45:                                    ; preds = %invoke.cont40
  invoke void @_ZN10SuffixTrie6searchENSt7__cxx1112basic_stringIcSt11char_traitsIcESaIcEEE(%class.SuffixTrie* %S, %"class.std::__cxx11::basic_string"* %agg.tmp42)
          to label %invoke.cont47 unwind label %lpad46

invoke.cont47:                                    ; preds = %invoke.cont45
  call void @_ZNSt7__cxx1112basic_stringIcSt11char_traitsIcESaIcEED1Ev(%"class.std::__cxx11::basic_string"* %agg.tmp42) #3
  call void @_ZNSaIcED1Ev(%"class.std::allocator.0"* %ref.tmp43) #3
  store i32 0, i32* %retval, align 4
  call void @_ZNSt7__cxx1112basic_stringIcSt11char_traitsIcESaIcEED1Ev(%"class.std::__cxx11::basic_string"* %txt) #3
  %0 = load i32, i32* %retval, align 4
  ret i32 %0

lpad:                                             ; preds = %entry
  %1 = landingpad { i8*, i32 }
          cleanup
  %2 = extractvalue { i8*, i32 } %1, 0
  store i8* %2, i8** %exn.slot, align 8
  %3 = extractvalue { i8*, i32 } %1, 1
  store i32 %3, i32* %ehselector.slot, align 4
  call void @_ZNSaIcED1Ev(%"class.std::allocator.0"* %ref.tmp) #3
  br label %eh.resume

lpad1:                                            ; preds = %invoke.cont38, %invoke.cont35, %invoke.cont26, %invoke.cont23, %invoke.cont14, %invoke.cont13, %invoke.cont5, %invoke.cont4, %invoke.cont
  %4 = landingpad { i8*, i32 }
          cleanup
  %5 = extractvalue { i8*, i32 } %4, 0
  store i8* %5, i8** %exn.slot, align 8
  %6 = extractvalue { i8*, i32 } %4, 1
  store i32 %6, i32* %ehselector.slot, align 4
  br label %ehcleanup50

lpad3:                                            ; preds = %invoke.cont2
  %7 = landingpad { i8*, i32 }
          cleanup
  %8 = extractvalue { i8*, i32 } %7, 0
  store i8* %8, i8** %exn.slot, align 8
  %9 = extractvalue { i8*, i32 } %7, 1
  store i32 %9, i32* %ehselector.slot, align 4
  call void @_ZNSt7__cxx1112basic_stringIcSt11char_traitsIcESaIcEED1Ev(%"class.std::__cxx11::basic_string"* %agg.tmp) #3
  br label %ehcleanup50

lpad10:                                           ; preds = %invoke.cont6
  %10 = landingpad { i8*, i32 }
          cleanup
  %11 = extractvalue { i8*, i32 } %10, 0
  store i8* %11, i8** %exn.slot, align 8
  %12 = extractvalue { i8*, i32 } %10, 1
  store i32 %12, i32* %ehselector.slot, align 4
  br label %ehcleanup

lpad12:                                           ; preds = %invoke.cont11
  %13 = landingpad { i8*, i32 }
          cleanup
  %14 = extractvalue { i8*, i32 } %13, 0
  store i8* %14, i8** %exn.slot, align 8
  %15 = extractvalue { i8*, i32 } %13, 1
  store i32 %15, i32* %ehselector.slot, align 4
  call void @_ZNSt7__cxx1112basic_stringIcSt11char_traitsIcESaIcEED1Ev(%"class.std::__cxx11::basic_string"* %agg.tmp8) #3
  br label %ehcleanup

ehcleanup:                                        ; preds = %lpad12, %lpad10
  call void @_ZNSaIcED1Ev(%"class.std::allocator.0"* %ref.tmp9) #3
  br label %ehcleanup50

lpad20:                                           ; preds = %invoke.cont16
  %16 = landingpad { i8*, i32 }
          cleanup
  %17 = extractvalue { i8*, i32 } %16, 0
  store i8* %17, i8** %exn.slot, align 8
  %18 = extractvalue { i8*, i32 } %16, 1
  store i32 %18, i32* %ehselector.slot, align 4
  br label %ehcleanup25

lpad22:                                           ; preds = %invoke.cont21
  %19 = landingpad { i8*, i32 }
          cleanup
  %20 = extractvalue { i8*, i32 } %19, 0
  store i8* %20, i8** %exn.slot, align 8
  %21 = extractvalue { i8*, i32 } %19, 1
  store i32 %21, i32* %ehselector.slot, align 4
  call void @_ZNSt7__cxx1112basic_stringIcSt11char_traitsIcESaIcEED1Ev(%"class.std::__cxx11::basic_string"* %agg.tmp18) #3
  br label %ehcleanup25

ehcleanup25:                                      ; preds = %lpad22, %lpad20
  call void @_ZNSaIcED1Ev(%"class.std::allocator.0"* %ref.tmp19) #3
  br label %ehcleanup50

lpad32:                                           ; preds = %invoke.cont28
  %22 = landingpad { i8*, i32 }
          cleanup
  %23 = extractvalue { i8*, i32 } %22, 0
  store i8* %23, i8** %exn.slot, align 8
  %24 = extractvalue { i8*, i32 } %22, 1
  store i32 %24, i32* %ehselector.slot, align 4
  br label %ehcleanup37

lpad34:                                           ; preds = %invoke.cont33
  %25 = landingpad { i8*, i32 }
          cleanup
  %26 = extractvalue { i8*, i32 } %25, 0
  store i8* %26, i8** %exn.slot, align 8
  %27 = extractvalue { i8*, i32 } %25, 1
  store i32 %27, i32* %ehselector.slot, align 4
  call void @_ZNSt7__cxx1112basic_stringIcSt11char_traitsIcESaIcEED1Ev(%"class.std::__cxx11::basic_string"* %agg.tmp30) #3
  br label %ehcleanup37

ehcleanup37:                                      ; preds = %lpad34, %lpad32
  call void @_ZNSaIcED1Ev(%"class.std::allocator.0"* %ref.tmp31) #3
  br label %ehcleanup50

lpad44:                                           ; preds = %invoke.cont40
  %28 = landingpad { i8*, i32 }
          cleanup
  %29 = extractvalue { i8*, i32 } %28, 0
  store i8* %29, i8** %exn.slot, align 8
  %30 = extractvalue { i8*, i32 } %28, 1
  store i32 %30, i32* %ehselector.slot, align 4
  br label %ehcleanup49

lpad46:                                           ; preds = %invoke.cont45
  %31 = landingpad { i8*, i32 }
          cleanup
  %32 = extractvalue { i8*, i32 } %31, 0
  store i8* %32, i8** %exn.slot, align 8
  %33 = extractvalue { i8*, i32 } %31, 1
  store i32 %33, i32* %ehselector.slot, align 4
  call void @_ZNSt7__cxx1112basic_stringIcSt11char_traitsIcESaIcEED1Ev(%"class.std::__cxx11::basic_string"* %agg.tmp42) #3
  br label %ehcleanup49

ehcleanup49:                                      ; preds = %lpad46, %lpad44
  call void @_ZNSaIcED1Ev(%"class.std::allocator.0"* %ref.tmp43) #3
  br label %ehcleanup50

ehcleanup50:                                      ; preds = %ehcleanup49, %ehcleanup37, %ehcleanup25, %ehcleanup, %lpad3, %lpad1
  call void @_ZNSt7__cxx1112basic_stringIcSt11char_traitsIcESaIcEED1Ev(%"class.std::__cxx11::basic_string"* %txt) #3
  br label %eh.resume

eh.resume:                                        ; preds = %ehcleanup50, %lpad
  %exn = load i8*, i8** %exn.slot, align 8
  %sel = load i32, i32* %ehselector.slot, align 4
  %lpad.val = insertvalue { i8*, i32 } undef, i8* %exn, 0
  %lpad.val51 = insertvalue { i8*, i32 } %lpad.val, i32 %sel, 1
  resume { i8*, i32 } %lpad.val51
}

; Function Attrs: nounwind
declare dso_local void @_ZNSaIcEC1Ev(%"class.std::allocator.0"*) unnamed_addr #2

declare dso_local void @_ZNSt7__cxx1112basic_stringIcSt11char_traitsIcESaIcEEC1EPKcRKS3_(%"class.std::__cxx11::basic_string"*, i8*, %"class.std::allocator.0"* dereferenceable(1)) unnamed_addr #1

; Function Attrs: nounwind
declare dso_local void @_ZNSaIcED1Ev(%"class.std::allocator.0"*) unnamed_addr #2

; Function Attrs: noinline uwtable
define linkonce_odr dso_local void @_ZN10SuffixTrieC2ENSt7__cxx1112basic_stringIcSt11char_traitsIcESaIcEEE(%class.SuffixTrie* %this, %"class.std::__cxx11::basic_string"* %txt) unnamed_addr #0 comdat align 2 personality i8* bitcast (i32 (...)* @__gxx_personality_v0 to i8*) {
entry:
  %this.addr = alloca %class.SuffixTrie*, align 8
  %i = alloca i32, align 4
  %agg.tmp = alloca %"class.std::__cxx11::basic_string", align 8
  %exn.slot = alloca i8*
  %ehselector.slot = alloca i32
  store %class.SuffixTrie* %this, %class.SuffixTrie** %this.addr, align 8
  %this1 = load %class.SuffixTrie*, %class.SuffixTrie** %this.addr, align 8
  %root = getelementptr inbounds %class.SuffixTrie, %class.SuffixTrie* %this1, i32 0, i32 0
  call void @_ZN14SuffixTrieNodeC2Ev(%class.SuffixTrieNode* %root)
  store i32 0, i32* %i, align 4
  br label %for.cond

for.cond:                                         ; preds = %for.inc, %entry
  %0 = load i32, i32* %i, align 4
  %conv = sext i32 %0 to i64
  %call = call i64 @_ZNKSt7__cxx1112basic_stringIcSt11char_traitsIcESaIcEE6lengthEv(%"class.std::__cxx11::basic_string"* %txt) #3
  %cmp = icmp ult i64 %conv, %call
  br i1 %cmp, label %for.body, label %for.end

for.body:                                         ; preds = %for.cond
  %root2 = getelementptr inbounds %class.SuffixTrie, %class.SuffixTrie* %this1, i32 0, i32 0
  %1 = load i32, i32* %i, align 4
  %conv3 = sext i32 %1 to i64
  call void @_ZNKSt7__cxx1112basic_stringIcSt11char_traitsIcESaIcEE6substrEmm(%"class.std::__cxx11::basic_string"* sret %agg.tmp, %"class.std::__cxx11::basic_string"* %txt, i64 %conv3, i64 -1)
  %2 = load i32, i32* %i, align 4
  invoke void @_ZN14SuffixTrieNode12insertSuffixENSt7__cxx1112basic_stringIcSt11char_traitsIcESaIcEEEi(%class.SuffixTrieNode* %root2, %"class.std::__cxx11::basic_string"* %agg.tmp, i32 %2)
          to label %invoke.cont unwind label %lpad

invoke.cont:                                      ; preds = %for.body
  call void @_ZNSt7__cxx1112basic_stringIcSt11char_traitsIcESaIcEED1Ev(%"class.std::__cxx11::basic_string"* %agg.tmp) #3
  br label %for.inc

for.inc:                                          ; preds = %invoke.cont
  %3 = load i32, i32* %i, align 4
  %inc = add nsw i32 %3, 1
  store i32 %inc, i32* %i, align 4
  br label %for.cond

lpad:                                             ; preds = %for.body
  %4 = landingpad { i8*, i32 }
          cleanup
  %5 = extractvalue { i8*, i32 } %4, 0
  store i8* %5, i8** %exn.slot, align 8
  %6 = extractvalue { i8*, i32 } %4, 1
  store i32 %6, i32* %ehselector.slot, align 4
  call void @_ZNSt7__cxx1112basic_stringIcSt11char_traitsIcESaIcEED1Ev(%"class.std::__cxx11::basic_string"* %agg.tmp) #3
  br label %eh.resume

for.end:                                          ; preds = %for.cond
  ret void

eh.resume:                                        ; preds = %lpad
  %exn = load i8*, i8** %exn.slot, align 8
  %sel = load i32, i32* %ehselector.slot, align 4
  %lpad.val = insertvalue { i8*, i32 } undef, i8* %exn, 0
  %lpad.val4 = insertvalue { i8*, i32 } %lpad.val, i32 %sel, 1
  resume { i8*, i32 } %lpad.val4
}

; Function Attrs: noinline nounwind uwtable
define linkonce_odr dso_local void @_ZNSt7__cxx114listIiSaIiEEC2Ev(%"class.std::__cxx11::list"* %this) unnamed_addr #6 comdat align 2 {
entry:
  %this.addr = alloca %"class.std::__cxx11::list"*, align 8
  store %"class.std::__cxx11::list"* %this, %"class.std::__cxx11::list"** %this.addr, align 8
  %this1 = load %"class.std::__cxx11::list"*, %"class.std::__cxx11::list"** %this.addr, align 8
  %0 = bitcast %"class.std::__cxx11::list"* %this1 to %"class.std::__cxx11::_List_base"*
  call void @_ZNSt7__cxx1110_List_baseIiSaIiEEC2Ev(%"class.std::__cxx11::_List_base"* %0) #3
  ret void
}

; Function Attrs: noinline nounwind uwtable
define linkonce_odr dso_local void @_ZNSt7__cxx1110_List_baseIiSaIiEEC2Ev(%"class.std::__cxx11::_List_base"* %this) unnamed_addr #6 comdat align 2 {
entry:
  %this.addr = alloca %"class.std::__cxx11::_List_base"*, align 8
  store %"class.std::__cxx11::_List_base"* %this, %"class.std::__cxx11::_List_base"** %this.addr, align 8
  %this1 = load %"class.std::__cxx11::_List_base"*, %"class.std::__cxx11::_List_base"** %this.addr, align 8
  %_M_impl = getelementptr inbounds %"class.std::__cxx11::_List_base", %"class.std::__cxx11::_List_base"* %this1, i32 0, i32 0
  call void @_ZNSt7__cxx1110_List_baseIiSaIiEE10_List_implC2Ev(%"struct.std::__cxx11::_List_base<int, std::allocator<int> >::_List_impl"* %_M_impl) #3
  ret void
}

; Function Attrs: noinline nounwind uwtable
define linkonce_odr dso_local void @_ZNSt7__cxx1110_List_baseIiSaIiEE10_List_implC2Ev(%"struct.std::__cxx11::_List_base<int, std::allocator<int> >::_List_impl"* %this) unnamed_addr #6 comdat align 2 {
entry:
  %this.addr = alloca %"struct.std::__cxx11::_List_base<int, std::allocator<int> >::_List_impl"*, align 8
  store %"struct.std::__cxx11::_List_base<int, std::allocator<int> >::_List_impl"* %this, %"struct.std::__cxx11::_List_base<int, std::allocator<int> >::_List_impl"** %this.addr, align 8
  %this1 = load %"struct.std::__cxx11::_List_base<int, std::allocator<int> >::_List_impl"*, %"struct.std::__cxx11::_List_base<int, std::allocator<int> >::_List_impl"** %this.addr, align 8
  %0 = bitcast %"struct.std::__cxx11::_List_base<int, std::allocator<int> >::_List_impl"* %this1 to %"class.std::allocator"*
  call void @_ZNSaISt10_List_nodeIiEEC2Ev(%"class.std::allocator"* %0) #3
  %_M_node = getelementptr inbounds %"struct.std::__cxx11::_List_base<int, std::allocator<int> >::_List_impl", %"struct.std::__cxx11::_List_base<int, std::allocator<int> >::_List_impl"* %this1, i32 0, i32 0
  call void @_ZNSt8__detail17_List_node_headerC2Ev(%"struct.std::__detail::_List_node_header"* %_M_node) #3
  ret void
}

; Function Attrs: noinline nounwind uwtable
define linkonce_odr dso_local void @_ZNSaISt10_List_nodeIiEEC2Ev(%"class.std::allocator"* %this) unnamed_addr #6 comdat align 2 {
entry:
  %this.addr = alloca %"class.std::allocator"*, align 8
  store %"class.std::allocator"* %this, %"class.std::allocator"** %this.addr, align 8
  %this1 = load %"class.std::allocator"*, %"class.std::allocator"** %this.addr, align 8
  %0 = bitcast %"class.std::allocator"* %this1 to %"class.__gnu_cxx::new_allocator"*
  call void @_ZN9__gnu_cxx13new_allocatorISt10_List_nodeIiEEC2Ev(%"class.__gnu_cxx::new_allocator"* %0) #3
  ret void
}

; Function Attrs: noinline nounwind uwtable
define linkonce_odr dso_local void @_ZNSt8__detail17_List_node_headerC2Ev(%"struct.std::__detail::_List_node_header"* %this) unnamed_addr #6 comdat align 2 {
entry:
  %this.addr = alloca %"struct.std::__detail::_List_node_header"*, align 8
  store %"struct.std::__detail::_List_node_header"* %this, %"struct.std::__detail::_List_node_header"** %this.addr, align 8
  %this1 = load %"struct.std::__detail::_List_node_header"*, %"struct.std::__detail::_List_node_header"** %this.addr, align 8
  %0 = bitcast %"struct.std::__detail::_List_node_header"* %this1 to %"struct.std::__detail::_List_node_base"*
  call void @_ZNSt8__detail17_List_node_header7_M_initEv(%"struct.std::__detail::_List_node_header"* %this1) #3
  ret void
}

; Function Attrs: noinline nounwind uwtable
define linkonce_odr dso_local void @_ZN9__gnu_cxx13new_allocatorISt10_List_nodeIiEEC2Ev(%"class.__gnu_cxx::new_allocator"* %this) unnamed_addr #6 comdat align 2 {
entry:
  %this.addr = alloca %"class.__gnu_cxx::new_allocator"*, align 8
  store %"class.__gnu_cxx::new_allocator"* %this, %"class.__gnu_cxx::new_allocator"** %this.addr, align 8
  %this1 = load %"class.__gnu_cxx::new_allocator"*, %"class.__gnu_cxx::new_allocator"** %this.addr, align 8
  ret void
}

; Function Attrs: noinline nounwind uwtable
define linkonce_odr dso_local void @_ZNSt8__detail17_List_node_header7_M_initEv(%"struct.std::__detail::_List_node_header"* %this) #6 comdat align 2 {
entry:
  %this.addr = alloca %"struct.std::__detail::_List_node_header"*, align 8
  store %"struct.std::__detail::_List_node_header"* %this, %"struct.std::__detail::_List_node_header"** %this.addr, align 8
  %this1 = load %"struct.std::__detail::_List_node_header"*, %"struct.std::__detail::_List_node_header"** %this.addr, align 8
  %0 = bitcast %"struct.std::__detail::_List_node_header"* %this1 to %"struct.std::__detail::_List_node_base"*
  %1 = bitcast %"struct.std::__detail::_List_node_header"* %this1 to %"struct.std::__detail::_List_node_base"*
  %_M_prev = getelementptr inbounds %"struct.std::__detail::_List_node_base", %"struct.std::__detail::_List_node_base"* %1, i32 0, i32 1
  store %"struct.std::__detail::_List_node_base"* %0, %"struct.std::__detail::_List_node_base"** %_M_prev, align 8
  %2 = bitcast %"struct.std::__detail::_List_node_header"* %this1 to %"struct.std::__detail::_List_node_base"*
  %_M_next = getelementptr inbounds %"struct.std::__detail::_List_node_base", %"struct.std::__detail::_List_node_base"* %2, i32 0, i32 0
  store %"struct.std::__detail::_List_node_base"* %0, %"struct.std::__detail::_List_node_base"** %_M_next, align 8
  %_M_size = getelementptr inbounds %"struct.std::__detail::_List_node_header", %"struct.std::__detail::_List_node_header"* %this1, i32 0, i32 1
  store i64 0, i64* %_M_size, align 8
  ret void
}

; Function Attrs: noinline uwtable
define linkonce_odr dso_local void @_ZNSt7__cxx114listIiSaIiEE9_M_insertIJRKiEEEvSt14_List_iteratorIiEDpOT_(%"class.std::__cxx11::list"* %this, %"struct.std::__detail::_List_node_base"* %__position.coerce, i32* dereferenceable(4) %__args) #0 comdat align 2 {
entry:
  %__position = alloca %"struct.std::_List_iterator", align 8
  %this.addr = alloca %"class.std::__cxx11::list"*, align 8
  %__args.addr = alloca i32*, align 8
  %__tmp = alloca %"struct.std::_List_node"*, align 8
  %coerce.dive = getelementptr inbounds %"struct.std::_List_iterator", %"struct.std::_List_iterator"* %__position, i32 0, i32 0
  store %"struct.std::__detail::_List_node_base"* %__position.coerce, %"struct.std::__detail::_List_node_base"** %coerce.dive, align 8
  store %"class.std::__cxx11::list"* %this, %"class.std::__cxx11::list"** %this.addr, align 8
  store i32* %__args, i32** %__args.addr, align 8
  %this1 = load %"class.std::__cxx11::list"*, %"class.std::__cxx11::list"** %this.addr, align 8
  %0 = load i32*, i32** %__args.addr, align 8
  %call = call dereferenceable(4) i32* @_ZSt7forwardIRKiEOT_RNSt16remove_referenceIS2_E4typeE(i32* dereferenceable(4) %0) #3
  %call2 = call %"struct.std::_List_node"* @_ZNSt7__cxx114listIiSaIiEE14_M_create_nodeIJRKiEEEPSt10_List_nodeIiEDpOT_(%"class.std::__cxx11::list"* %this1, i32* dereferenceable(4) %call)
  store %"struct.std::_List_node"* %call2, %"struct.std::_List_node"** %__tmp, align 8
  %1 = load %"struct.std::_List_node"*, %"struct.std::_List_node"** %__tmp, align 8
  %2 = bitcast %"struct.std::_List_node"* %1 to %"struct.std::__detail::_List_node_base"*
  %_M_node = getelementptr inbounds %"struct.std::_List_iterator", %"struct.std::_List_iterator"* %__position, i32 0, i32 0
  %3 = load %"struct.std::__detail::_List_node_base"*, %"struct.std::__detail::_List_node_base"** %_M_node, align 8
  call void @_ZNSt8__detail15_List_node_base7_M_hookEPS0_(%"struct.std::__detail::_List_node_base"* %2, %"struct.std::__detail::_List_node_base"* %3) #3
  %4 = bitcast %"class.std::__cxx11::list"* %this1 to %"class.std::__cxx11::_List_base"*
  call void @_ZNSt7__cxx1110_List_baseIiSaIiEE11_M_inc_sizeEm(%"class.std::__cxx11::_List_base"* %4, i64 1)
  ret void
}

; Function Attrs: noinline uwtable
define linkonce_odr dso_local %"struct.std::_List_node"* @_ZNSt7__cxx114listIiSaIiEE14_M_create_nodeIJRKiEEEPSt10_List_nodeIiEDpOT_(%"class.std::__cxx11::list"* %this, i32* dereferenceable(4) %__args) #0 comdat align 2 personality i8* bitcast (i32 (...)* @__gxx_personality_v0 to i8*) {
entry:
  %this.addr = alloca %"class.std::__cxx11::list"*, align 8
  %__args.addr = alloca i32*, align 8
  %__p = alloca %"struct.std::_List_node"*, align 8
  %__alloc = alloca %"class.std::allocator"*, align 8
  %__guard = alloca %"struct.std::__allocated_ptr", align 8
  %exn.slot = alloca i8*
  %ehselector.slot = alloca i32
  store %"class.std::__cxx11::list"* %this, %"class.std::__cxx11::list"** %this.addr, align 8
  store i32* %__args, i32** %__args.addr, align 8
  %this1 = load %"class.std::__cxx11::list"*, %"class.std::__cxx11::list"** %this.addr, align 8
  %0 = bitcast %"class.std::__cxx11::list"* %this1 to %"class.std::__cxx11::_List_base"*
  %call = call %"struct.std::_List_node"* @_ZNSt7__cxx1110_List_baseIiSaIiEE11_M_get_nodeEv(%"class.std::__cxx11::_List_base"* %0)
  store %"struct.std::_List_node"* %call, %"struct.std::_List_node"** %__p, align 8
  %1 = bitcast %"class.std::__cxx11::list"* %this1 to %"class.std::__cxx11::_List_base"*
  %call2 = call dereferenceable(1) %"class.std::allocator"* @_ZNSt7__cxx1110_List_baseIiSaIiEE21_M_get_Node_allocatorEv(%"class.std::__cxx11::_List_base"* %1) #3
  store %"class.std::allocator"* %call2, %"class.std::allocator"** %__alloc, align 8
  %2 = load %"class.std::allocator"*, %"class.std::allocator"** %__alloc, align 8
  %3 = load %"struct.std::_List_node"*, %"struct.std::_List_node"** %__p, align 8
  call void @_ZNSt15__allocated_ptrISaISt10_List_nodeIiEEEC2ERS2_PS1_(%"struct.std::__allocated_ptr"* %__guard, %"class.std::allocator"* dereferenceable(1) %2, %"struct.std::_List_node"* %3) #3
  %4 = load %"class.std::allocator"*, %"class.std::allocator"** %__alloc, align 8
  %5 = load %"struct.std::_List_node"*, %"struct.std::_List_node"** %__p, align 8
  %call3 = invoke i32* @_ZNSt10_List_nodeIiE9_M_valptrEv(%"struct.std::_List_node"* %5)
          to label %invoke.cont unwind label %lpad

invoke.cont:                                      ; preds = %entry
  %6 = load i32*, i32** %__args.addr, align 8
  %call4 = call dereferenceable(4) i32* @_ZSt7forwardIRKiEOT_RNSt16remove_referenceIS2_E4typeE(i32* dereferenceable(4) %6) #3
  call void @_ZNSt16allocator_traitsISaISt10_List_nodeIiEEE9constructIiJRKiEEEvRS2_PT_DpOT0_(%"class.std::allocator"* dereferenceable(1) %4, i32* %call3, i32* dereferenceable(4) %call4) #3
  %call5 = call dereferenceable(16) %"struct.std::__allocated_ptr"* @_ZNSt15__allocated_ptrISaISt10_List_nodeIiEEEaSEDn(%"struct.std::__allocated_ptr"* %__guard, i8* null) #3
  %7 = load %"struct.std::_List_node"*, %"struct.std::_List_node"** %__p, align 8
  call void @_ZNSt15__allocated_ptrISaISt10_List_nodeIiEEED2Ev(%"struct.std::__allocated_ptr"* %__guard) #3
  ret %"struct.std::_List_node"* %7

lpad:                                             ; preds = %entry
  %8 = landingpad { i8*, i32 }
          cleanup
  %9 = extractvalue { i8*, i32 } %8, 0
  store i8* %9, i8** %exn.slot, align 8
  %10 = extractvalue { i8*, i32 } %8, 1
  store i32 %10, i32* %ehselector.slot, align 4
  call void @_ZNSt15__allocated_ptrISaISt10_List_nodeIiEEED2Ev(%"struct.std::__allocated_ptr"* %__guard) #3
  br label %eh.resume

eh.resume:                                        ; preds = %lpad
  %exn = load i8*, i8** %exn.slot, align 8
  %sel = load i32, i32* %ehselector.slot, align 4
  %lpad.val = insertvalue { i8*, i32 } undef, i8* %exn, 0
  %lpad.val6 = insertvalue { i8*, i32 } %lpad.val, i32 %sel, 1
  resume { i8*, i32 } %lpad.val6
}

; Function Attrs: noinline nounwind uwtable
define linkonce_odr dso_local dereferenceable(4) i32* @_ZSt7forwardIRKiEOT_RNSt16remove_referenceIS2_E4typeE(i32* dereferenceable(4) %__t) #6 comdat {
entry:
  %__t.addr = alloca i32*, align 8
  store i32* %__t, i32** %__t.addr, align 8
  %0 = load i32*, i32** %__t.addr, align 8
  ret i32* %0
}

; Function Attrs: nounwind
declare dso_local void @_ZNSt8__detail15_List_node_base7_M_hookEPS0_(%"struct.std::__detail::_List_node_base"*, %"struct.std::__detail::_List_node_base"*) #2

; Function Attrs: noinline nounwind uwtable
define linkonce_odr dso_local void @_ZNSt7__cxx1110_List_baseIiSaIiEE11_M_inc_sizeEm(%"class.std::__cxx11::_List_base"* %this, i64 %__n) #6 comdat align 2 {
entry:
  %this.addr = alloca %"class.std::__cxx11::_List_base"*, align 8
  %__n.addr = alloca i64, align 8
  store %"class.std::__cxx11::_List_base"* %this, %"class.std::__cxx11::_List_base"** %this.addr, align 8
  store i64 %__n, i64* %__n.addr, align 8
  %this1 = load %"class.std::__cxx11::_List_base"*, %"class.std::__cxx11::_List_base"** %this.addr, align 8
  %0 = load i64, i64* %__n.addr, align 8
  %_M_impl = getelementptr inbounds %"class.std::__cxx11::_List_base", %"class.std::__cxx11::_List_base"* %this1, i32 0, i32 0
  %_M_node = getelementptr inbounds %"struct.std::__cxx11::_List_base<int, std::allocator<int> >::_List_impl", %"struct.std::__cxx11::_List_base<int, std::allocator<int> >::_List_impl"* %_M_impl, i32 0, i32 0
  %_M_size = getelementptr inbounds %"struct.std::__detail::_List_node_header", %"struct.std::__detail::_List_node_header"* %_M_node, i32 0, i32 1
  %1 = load i64, i64* %_M_size, align 8
  %add = add i64 %1, %0
  store i64 %add, i64* %_M_size, align 8
  ret void
}

; Function Attrs: noinline uwtable
define linkonce_odr dso_local %"struct.std::_List_node"* @_ZNSt7__cxx1110_List_baseIiSaIiEE11_M_get_nodeEv(%"class.std::__cxx11::_List_base"* %this) #0 comdat align 2 {
entry:
  %this.addr = alloca %"class.std::__cxx11::_List_base"*, align 8
  store %"class.std::__cxx11::_List_base"* %this, %"class.std::__cxx11::_List_base"** %this.addr, align 8
  %this1 = load %"class.std::__cxx11::_List_base"*, %"class.std::__cxx11::_List_base"** %this.addr, align 8
  %_M_impl = getelementptr inbounds %"class.std::__cxx11::_List_base", %"class.std::__cxx11::_List_base"* %this1, i32 0, i32 0
  %0 = bitcast %"struct.std::__cxx11::_List_base<int, std::allocator<int> >::_List_impl"* %_M_impl to %"class.std::allocator"*
  %call = call %"struct.std::_List_node"* @_ZNSt16allocator_traitsISaISt10_List_nodeIiEEE8allocateERS2_m(%"class.std::allocator"* dereferenceable(1) %0, i64 1)
  ret %"struct.std::_List_node"* %call
}

; Function Attrs: noinline nounwind uwtable
define linkonce_odr dso_local dereferenceable(1) %"class.std::allocator"* @_ZNSt7__cxx1110_List_baseIiSaIiEE21_M_get_Node_allocatorEv(%"class.std::__cxx11::_List_base"* %this) #6 comdat align 2 {
entry:
  %this.addr = alloca %"class.std::__cxx11::_List_base"*, align 8
  store %"class.std::__cxx11::_List_base"* %this, %"class.std::__cxx11::_List_base"** %this.addr, align 8
  %this1 = load %"class.std::__cxx11::_List_base"*, %"class.std::__cxx11::_List_base"** %this.addr, align 8
  %_M_impl = getelementptr inbounds %"class.std::__cxx11::_List_base", %"class.std::__cxx11::_List_base"* %this1, i32 0, i32 0
  %0 = bitcast %"struct.std::__cxx11::_List_base<int, std::allocator<int> >::_List_impl"* %_M_impl to %"class.std::allocator"*
  ret %"class.std::allocator"* %0
}

; Function Attrs: noinline nounwind uwtable
define linkonce_odr dso_local void @_ZNSt15__allocated_ptrISaISt10_List_nodeIiEEEC2ERS2_PS1_(%"struct.std::__allocated_ptr"* %this, %"class.std::allocator"* dereferenceable(1) %__a, %"struct.std::_List_node"* %__ptr) unnamed_addr #6 comdat align 2 {
entry:
  %this.addr = alloca %"struct.std::__allocated_ptr"*, align 8
  %__a.addr = alloca %"class.std::allocator"*, align 8
  %__ptr.addr = alloca %"struct.std::_List_node"*, align 8
  store %"struct.std::__allocated_ptr"* %this, %"struct.std::__allocated_ptr"** %this.addr, align 8
  store %"class.std::allocator"* %__a, %"class.std::allocator"** %__a.addr, align 8
  store %"struct.std::_List_node"* %__ptr, %"struct.std::_List_node"** %__ptr.addr, align 8
  %this1 = load %"struct.std::__allocated_ptr"*, %"struct.std::__allocated_ptr"** %this.addr, align 8
  %_M_alloc = getelementptr inbounds %"struct.std::__allocated_ptr", %"struct.std::__allocated_ptr"* %this1, i32 0, i32 0
  %0 = load %"class.std::allocator"*, %"class.std::allocator"** %__a.addr, align 8
  %call = call %"class.std::allocator"* @_ZSt11__addressofISaISt10_List_nodeIiEEEPT_RS3_(%"class.std::allocator"* dereferenceable(1) %0) #3
  store %"class.std::allocator"* %call, %"class.std::allocator"** %_M_alloc, align 8
  %_M_ptr = getelementptr inbounds %"struct.std::__allocated_ptr", %"struct.std::__allocated_ptr"* %this1, i32 0, i32 1
  %1 = load %"struct.std::_List_node"*, %"struct.std::_List_node"** %__ptr.addr, align 8
  store %"struct.std::_List_node"* %1, %"struct.std::_List_node"** %_M_ptr, align 8
  ret void
}

; Function Attrs: noinline nounwind uwtable
define linkonce_odr dso_local void @_ZNSt16allocator_traitsISaISt10_List_nodeIiEEE9constructIiJRKiEEEvRS2_PT_DpOT0_(%"class.std::allocator"* dereferenceable(1) %__a, i32* %__p, i32* dereferenceable(4) %__args) #6 comdat align 2 {
entry:
  %__a.addr = alloca %"class.std::allocator"*, align 8
  %__p.addr = alloca i32*, align 8
  %__args.addr = alloca i32*, align 8
  store %"class.std::allocator"* %__a, %"class.std::allocator"** %__a.addr, align 8
  store i32* %__p, i32** %__p.addr, align 8
  store i32* %__args, i32** %__args.addr, align 8
  %0 = load %"class.std::allocator"*, %"class.std::allocator"** %__a.addr, align 8
  %1 = bitcast %"class.std::allocator"* %0 to %"class.__gnu_cxx::new_allocator"*
  %2 = load i32*, i32** %__p.addr, align 8
  %3 = load i32*, i32** %__args.addr, align 8
  %call = call dereferenceable(4) i32* @_ZSt7forwardIRKiEOT_RNSt16remove_referenceIS2_E4typeE(i32* dereferenceable(4) %3) #3
  call void @_ZN9__gnu_cxx13new_allocatorISt10_List_nodeIiEE9constructIiJRKiEEEvPT_DpOT0_(%"class.__gnu_cxx::new_allocator"* %1, i32* %2, i32* dereferenceable(4) %call) #3
  ret void
}

; Function Attrs: noinline nounwind uwtable
define linkonce_odr dso_local i32* @_ZNSt10_List_nodeIiE9_M_valptrEv(%"struct.std::_List_node"* %this) #6 comdat align 2 {
entry:
  %this.addr = alloca %"struct.std::_List_node"*, align 8
  store %"struct.std::_List_node"* %this, %"struct.std::_List_node"** %this.addr, align 8
  %this1 = load %"struct.std::_List_node"*, %"struct.std::_List_node"** %this.addr, align 8
  %_M_storage = getelementptr inbounds %"struct.std::_List_node", %"struct.std::_List_node"* %this1, i32 0, i32 1
  %call = call i32* @_ZN9__gnu_cxx16__aligned_membufIiE6_M_ptrEv(%"struct.__gnu_cxx::__aligned_membuf"* %_M_storage) #3
  ret i32* %call
}

; Function Attrs: noinline nounwind uwtable
define linkonce_odr dso_local dereferenceable(16) %"struct.std::__allocated_ptr"* @_ZNSt15__allocated_ptrISaISt10_List_nodeIiEEEaSEDn(%"struct.std::__allocated_ptr"* %this, i8*) #6 comdat align 2 {
entry:
  %this.addr = alloca %"struct.std::__allocated_ptr"*, align 8
  %.addr = alloca i8*, align 8
  store %"struct.std::__allocated_ptr"* %this, %"struct.std::__allocated_ptr"** %this.addr, align 8
  store i8* %0, i8** %.addr, align 8
  %this1 = load %"struct.std::__allocated_ptr"*, %"struct.std::__allocated_ptr"** %this.addr, align 8
  %_M_ptr = getelementptr inbounds %"struct.std::__allocated_ptr", %"struct.std::__allocated_ptr"* %this1, i32 0, i32 1
  store %"struct.std::_List_node"* null, %"struct.std::_List_node"** %_M_ptr, align 8
  ret %"struct.std::__allocated_ptr"* %this1
}

; Function Attrs: noinline nounwind uwtable
define linkonce_odr dso_local void @_ZNSt15__allocated_ptrISaISt10_List_nodeIiEEED2Ev(%"struct.std::__allocated_ptr"* %this) unnamed_addr #6 comdat align 2 personality i8* bitcast (i32 (...)* @__gxx_personality_v0 to i8*) {
entry:
  %this.addr = alloca %"struct.std::__allocated_ptr"*, align 8
  store %"struct.std::__allocated_ptr"* %this, %"struct.std::__allocated_ptr"** %this.addr, align 8
  %this1 = load %"struct.std::__allocated_ptr"*, %"struct.std::__allocated_ptr"** %this.addr, align 8
  %_M_ptr = getelementptr inbounds %"struct.std::__allocated_ptr", %"struct.std::__allocated_ptr"* %this1, i32 0, i32 1
  %0 = load %"struct.std::_List_node"*, %"struct.std::_List_node"** %_M_ptr, align 8
  %cmp = icmp ne %"struct.std::_List_node"* %0, null
  br i1 %cmp, label %if.then, label %if.end

if.then:                                          ; preds = %entry
  %_M_alloc = getelementptr inbounds %"struct.std::__allocated_ptr", %"struct.std::__allocated_ptr"* %this1, i32 0, i32 0
  %1 = load %"class.std::allocator"*, %"class.std::allocator"** %_M_alloc, align 8
  %_M_ptr2 = getelementptr inbounds %"struct.std::__allocated_ptr", %"struct.std::__allocated_ptr"* %this1, i32 0, i32 1
  %2 = load %"struct.std::_List_node"*, %"struct.std::_List_node"** %_M_ptr2, align 8
  invoke void @_ZNSt16allocator_traitsISaISt10_List_nodeIiEEE10deallocateERS2_PS1_m(%"class.std::allocator"* dereferenceable(1) %1, %"struct.std::_List_node"* %2, i64 1)
          to label %invoke.cont unwind label %terminate.lpad

invoke.cont:                                      ; preds = %if.then
  br label %if.end

if.end:                                           ; preds = %invoke.cont, %entry
  ret void

terminate.lpad:                                   ; preds = %if.then
  %3 = landingpad { i8*, i32 }
          catch i8* null
  %4 = extractvalue { i8*, i32 } %3, 0
  call void @__clang_call_terminate(i8* %4) #13
  unreachable
}

; Function Attrs: noinline uwtable
define linkonce_odr dso_local %"struct.std::_List_node"* @_ZNSt16allocator_traitsISaISt10_List_nodeIiEEE8allocateERS2_m(%"class.std::allocator"* dereferenceable(1) %__a, i64 %__n) #0 comdat align 2 {
entry:
  %__a.addr = alloca %"class.std::allocator"*, align 8
  %__n.addr = alloca i64, align 8
  store %"class.std::allocator"* %__a, %"class.std::allocator"** %__a.addr, align 8
  store i64 %__n, i64* %__n.addr, align 8
  %0 = load %"class.std::allocator"*, %"class.std::allocator"** %__a.addr, align 8
  %1 = bitcast %"class.std::allocator"* %0 to %"class.__gnu_cxx::new_allocator"*
  %2 = load i64, i64* %__n.addr, align 8
  %call = call %"struct.std::_List_node"* @_ZN9__gnu_cxx13new_allocatorISt10_List_nodeIiEE8allocateEmPKv(%"class.__gnu_cxx::new_allocator"* %1, i64 %2, i8* null)
  ret %"struct.std::_List_node"* %call
}

; Function Attrs: noinline uwtable
define linkonce_odr dso_local %"struct.std::_List_node"* @_ZN9__gnu_cxx13new_allocatorISt10_List_nodeIiEE8allocateEmPKv(%"class.__gnu_cxx::new_allocator"* %this, i64 %__n, i8*) #0 comdat align 2 {
entry:
  %this.addr = alloca %"class.__gnu_cxx::new_allocator"*, align 8
  %__n.addr = alloca i64, align 8
  %.addr = alloca i8*, align 8
  store %"class.__gnu_cxx::new_allocator"* %this, %"class.__gnu_cxx::new_allocator"** %this.addr, align 8
  store i64 %__n, i64* %__n.addr, align 8
  store i8* %0, i8** %.addr, align 8
  %this1 = load %"class.__gnu_cxx::new_allocator"*, %"class.__gnu_cxx::new_allocator"** %this.addr, align 8
  %1 = load i64, i64* %__n.addr, align 8
  %call = call i64 @_ZNK9__gnu_cxx13new_allocatorISt10_List_nodeIiEE11_M_max_sizeEv(%"class.__gnu_cxx::new_allocator"* %this1) #3
  %cmp = icmp ugt i64 %1, %call
  br i1 %cmp, label %if.then, label %if.end

if.then:                                          ; preds = %entry
  call void @_ZSt17__throw_bad_allocv() #14
  unreachable

if.end:                                           ; preds = %entry
  %2 = load i64, i64* %__n.addr, align 8
  %mul = mul i64 %2, 24
  %call2 = call i8* @_Znwm(i64 %mul)
  %3 = bitcast i8* %call2 to %"struct.std::_List_node"*
  ret %"struct.std::_List_node"* %3
}

; Function Attrs: noinline nounwind uwtable
define linkonce_odr dso_local i64 @_ZNK9__gnu_cxx13new_allocatorISt10_List_nodeIiEE11_M_max_sizeEv(%"class.__gnu_cxx::new_allocator"* %this) #6 comdat align 2 {
entry:
  %this.addr = alloca %"class.__gnu_cxx::new_allocator"*, align 8
  store %"class.__gnu_cxx::new_allocator"* %this, %"class.__gnu_cxx::new_allocator"** %this.addr, align 8
  %this1 = load %"class.__gnu_cxx::new_allocator"*, %"class.__gnu_cxx::new_allocator"** %this.addr, align 8
  ret i64 384307168202282325
}

; Function Attrs: noreturn
declare dso_local void @_ZSt17__throw_bad_allocv() #9

; Function Attrs: noinline nounwind uwtable
define linkonce_odr dso_local %"class.std::allocator"* @_ZSt11__addressofISaISt10_List_nodeIiEEEPT_RS3_(%"class.std::allocator"* dereferenceable(1) %__r) #6 comdat {
entry:
  %__r.addr = alloca %"class.std::allocator"*, align 8
  store %"class.std::allocator"* %__r, %"class.std::allocator"** %__r.addr, align 8
  %0 = load %"class.std::allocator"*, %"class.std::allocator"** %__r.addr, align 8
  ret %"class.std::allocator"* %0
}

; Function Attrs: noinline nounwind uwtable
define linkonce_odr dso_local void @_ZN9__gnu_cxx13new_allocatorISt10_List_nodeIiEE9constructIiJRKiEEEvPT_DpOT0_(%"class.__gnu_cxx::new_allocator"* %this, i32* %__p, i32* dereferenceable(4) %__args) #6 comdat align 2 {
entry:
  %this.addr = alloca %"class.__gnu_cxx::new_allocator"*, align 8
  %__p.addr = alloca i32*, align 8
  %__args.addr = alloca i32*, align 8
  store %"class.__gnu_cxx::new_allocator"* %this, %"class.__gnu_cxx::new_allocator"** %this.addr, align 8
  store i32* %__p, i32** %__p.addr, align 8
  store i32* %__args, i32** %__args.addr, align 8
  %this1 = load %"class.__gnu_cxx::new_allocator"*, %"class.__gnu_cxx::new_allocator"** %this.addr, align 8
  %0 = load i32*, i32** %__p.addr, align 8
  %1 = bitcast i32* %0 to i8*
  %2 = bitcast i8* %1 to i32*
  %3 = load i32*, i32** %__args.addr, align 8
  %call = call dereferenceable(4) i32* @_ZSt7forwardIRKiEOT_RNSt16remove_referenceIS2_E4typeE(i32* dereferenceable(4) %3) #3
  %4 = load i32, i32* %call, align 4
  store i32 %4, i32* %2, align 4
  ret void
}

; Function Attrs: noinline nounwind uwtable
define linkonce_odr dso_local i32* @_ZN9__gnu_cxx16__aligned_membufIiE6_M_ptrEv(%"struct.__gnu_cxx::__aligned_membuf"* %this) #6 comdat align 2 {
entry:
  %this.addr = alloca %"struct.__gnu_cxx::__aligned_membuf"*, align 8
  store %"struct.__gnu_cxx::__aligned_membuf"* %this, %"struct.__gnu_cxx::__aligned_membuf"** %this.addr, align 8
  %this1 = load %"struct.__gnu_cxx::__aligned_membuf"*, %"struct.__gnu_cxx::__aligned_membuf"** %this.addr, align 8
  %call = call i8* @_ZN9__gnu_cxx16__aligned_membufIiE7_M_addrEv(%"struct.__gnu_cxx::__aligned_membuf"* %this1) #3
  %0 = bitcast i8* %call to i32*
  ret i32* %0
}

; Function Attrs: noinline nounwind uwtable
define linkonce_odr dso_local i8* @_ZN9__gnu_cxx16__aligned_membufIiE7_M_addrEv(%"struct.__gnu_cxx::__aligned_membuf"* %this) #6 comdat align 2 {
entry:
  %this.addr = alloca %"struct.__gnu_cxx::__aligned_membuf"*, align 8
  store %"struct.__gnu_cxx::__aligned_membuf"* %this, %"struct.__gnu_cxx::__aligned_membuf"** %this.addr, align 8
  %this1 = load %"struct.__gnu_cxx::__aligned_membuf"*, %"struct.__gnu_cxx::__aligned_membuf"** %this.addr, align 8
  %_M_storage = getelementptr inbounds %"struct.__gnu_cxx::__aligned_membuf", %"struct.__gnu_cxx::__aligned_membuf"* %this1, i32 0, i32 0
  %0 = bitcast [4 x i8]* %_M_storage to i8*
  ret i8* %0
}

; Function Attrs: noinline uwtable
define linkonce_odr dso_local void @_ZNSt16allocator_traitsISaISt10_List_nodeIiEEE10deallocateERS2_PS1_m(%"class.std::allocator"* dereferenceable(1) %__a, %"struct.std::_List_node"* %__p, i64 %__n) #0 comdat align 2 {
entry:
  %__a.addr = alloca %"class.std::allocator"*, align 8
  %__p.addr = alloca %"struct.std::_List_node"*, align 8
  %__n.addr = alloca i64, align 8
  store %"class.std::allocator"* %__a, %"class.std::allocator"** %__a.addr, align 8
  store %"struct.std::_List_node"* %__p, %"struct.std::_List_node"** %__p.addr, align 8
  store i64 %__n, i64* %__n.addr, align 8
  %0 = load %"class.std::allocator"*, %"class.std::allocator"** %__a.addr, align 8
  %1 = bitcast %"class.std::allocator"* %0 to %"class.__gnu_cxx::new_allocator"*
  %2 = load %"struct.std::_List_node"*, %"struct.std::_List_node"** %__p.addr, align 8
  %3 = load i64, i64* %__n.addr, align 8
  call void @_ZN9__gnu_cxx13new_allocatorISt10_List_nodeIiEE10deallocateEPS2_m(%"class.__gnu_cxx::new_allocator"* %1, %"struct.std::_List_node"* %2, i64 %3)
  ret void
}

; Function Attrs: noinline noreturn nounwind
define linkonce_odr hidden void @__clang_call_terminate(i8*) #10 comdat {
  %2 = call i8* @__cxa_begin_catch(i8* %0) #3
  call void @_ZSt9terminatev() #13
  unreachable
}

declare dso_local i8* @__cxa_begin_catch(i8*)

declare dso_local void @_ZSt9terminatev()

; Function Attrs: noinline nounwind uwtable
define linkonce_odr dso_local void @_ZN9__gnu_cxx13new_allocatorISt10_List_nodeIiEE10deallocateEPS2_m(%"class.__gnu_cxx::new_allocator"* %this, %"struct.std::_List_node"* %__p, i64 %__t) #6 comdat align 2 {
entry:
  %this.addr = alloca %"class.__gnu_cxx::new_allocator"*, align 8
  %__p.addr = alloca %"struct.std::_List_node"*, align 8
  %__t.addr = alloca i64, align 8
  store %"class.__gnu_cxx::new_allocator"* %this, %"class.__gnu_cxx::new_allocator"** %this.addr, align 8
  store %"struct.std::_List_node"* %__p, %"struct.std::_List_node"** %__p.addr, align 8
  store i64 %__t, i64* %__t.addr, align 8
  %this1 = load %"class.__gnu_cxx::new_allocator"*, %"class.__gnu_cxx::new_allocator"** %this.addr, align 8
  %0 = load %"struct.std::_List_node"*, %"struct.std::_List_node"** %__p.addr, align 8
  %1 = bitcast %"struct.std::_List_node"* %0 to i8*
  call void @_ZdlPv(i8* %1) #3
  ret void
}

; Function Attrs: noinline nounwind uwtable
define linkonce_odr dso_local void @_ZNSt14_List_iteratorIiEC2EPNSt8__detail15_List_node_baseE(%"struct.std::_List_iterator"* %this, %"struct.std::__detail::_List_node_base"* %__x) unnamed_addr #6 comdat align 2 {
entry:
  %this.addr = alloca %"struct.std::_List_iterator"*, align 8
  %__x.addr = alloca %"struct.std::__detail::_List_node_base"*, align 8
  store %"struct.std::_List_iterator"* %this, %"struct.std::_List_iterator"** %this.addr, align 8
  store %"struct.std::__detail::_List_node_base"* %__x, %"struct.std::__detail::_List_node_base"** %__x.addr, align 8
  %this1 = load %"struct.std::_List_iterator"*, %"struct.std::_List_iterator"** %this.addr, align 8
  %_M_node = getelementptr inbounds %"struct.std::_List_iterator", %"struct.std::_List_iterator"* %this1, i32 0, i32 0
  %0 = load %"struct.std::__detail::_List_node_base"*, %"struct.std::__detail::_List_node_base"** %__x.addr, align 8
  store %"struct.std::__detail::_List_node_base"* %0, %"struct.std::__detail::_List_node_base"** %_M_node, align 8
  ret void
}

; Function Attrs: noinline uwtable
define internal void @_GLOBAL__sub_I_trie_suffixes.cpp() #0 section ".text.startup" {
entry:
  call void @__cxx_global_var_init()
  ret void
}

attributes #0 = { noinline uwtable "correctly-rounded-divide-sqrt-fp-math"="false" "disable-tail-calls"="false" "less-precise-fpmad"="false" "min-legal-vector-width"="0" "no-frame-pointer-elim"="true" "no-frame-pointer-elim-non-leaf" "no-infs-fp-math"="false" "no-jump-tables"="false" "no-nans-fp-math"="false" "no-signed-zeros-fp-math"="false" "no-trapping-math"="false" "stack-protector-buffer-size"="8" "target-cpu"="x86-64" "target-features"="+fxsr,+mmx,+sse,+sse2,+x87" "unsafe-fp-math"="false" "use-soft-float"="false" }
attributes #1 = { "correctly-rounded-divide-sqrt-fp-math"="false" "disable-tail-calls"="false" "less-precise-fpmad"="false" "no-frame-pointer-elim"="true" "no-frame-pointer-elim-non-leaf" "no-infs-fp-math"="false" "no-nans-fp-math"="false" "no-signed-zeros-fp-math"="false" "no-trapping-math"="false" "stack-protector-buffer-size"="8" "target-cpu"="x86-64" "target-features"="+fxsr,+mmx,+sse,+sse2,+x87" "unsafe-fp-math"="false" "use-soft-float"="false" }
attributes #2 = { nounwind "correctly-rounded-divide-sqrt-fp-math"="false" "disable-tail-calls"="false" "less-precise-fpmad"="false" "no-frame-pointer-elim"="true" "no-frame-pointer-elim-non-leaf" "no-infs-fp-math"="false" "no-nans-fp-math"="false" "no-signed-zeros-fp-math"="false" "no-trapping-math"="false" "stack-protector-buffer-size"="8" "target-cpu"="x86-64" "target-features"="+fxsr,+mmx,+sse,+sse2,+x87" "unsafe-fp-math"="false" "use-soft-float"="false" }
attributes #3 = { nounwind }
attributes #4 = { nobuiltin "correctly-rounded-divide-sqrt-fp-math"="false" "disable-tail-calls"="false" "less-precise-fpmad"="false" "no-frame-pointer-elim"="true" "no-frame-pointer-elim-non-leaf" "no-infs-fp-math"="false" "no-nans-fp-math"="false" "no-signed-zeros-fp-math"="false" "no-trapping-math"="false" "stack-protector-buffer-size"="8" "target-cpu"="x86-64" "target-features"="+fxsr,+mmx,+sse,+sse2,+x87" "unsafe-fp-math"="false" "use-soft-float"="false" }
attributes #5 = { nobuiltin nounwind "correctly-rounded-divide-sqrt-fp-math"="false" "disable-tail-calls"="false" "less-precise-fpmad"="false" "no-frame-pointer-elim"="true" "no-frame-pointer-elim-non-leaf" "no-infs-fp-math"="false" "no-nans-fp-math"="false" "no-signed-zeros-fp-math"="false" "no-trapping-math"="false" "stack-protector-buffer-size"="8" "target-cpu"="x86-64" "target-features"="+fxsr,+mmx,+sse,+sse2,+x87" "unsafe-fp-math"="false" "use-soft-float"="false" }
attributes #6 = { noinline nounwind uwtable "correctly-rounded-divide-sqrt-fp-math"="false" "disable-tail-calls"="false" "less-precise-fpmad"="false" "min-legal-vector-width"="0" "no-frame-pointer-elim"="true" "no-frame-pointer-elim-non-leaf" "no-infs-fp-math"="false" "no-jump-tables"="false" "no-nans-fp-math"="false" "no-signed-zeros-fp-math"="false" "no-trapping-math"="false" "stack-protector-buffer-size"="8" "target-cpu"="x86-64" "target-features"="+fxsr,+mmx,+sse,+sse2,+x87" "unsafe-fp-math"="false" "use-soft-float"="false" }
attributes #7 = { argmemonly nounwind }
attributes #8 = { noinline norecurse uwtable "correctly-rounded-divide-sqrt-fp-math"="false" "disable-tail-calls"="false" "less-precise-fpmad"="false" "min-legal-vector-width"="0" "no-frame-pointer-elim"="true" "no-frame-pointer-elim-non-leaf" "no-infs-fp-math"="false" "no-jump-tables"="false" "no-nans-fp-math"="false" "no-signed-zeros-fp-math"="false" "no-trapping-math"="false" "stack-protector-buffer-size"="8" "target-cpu"="x86-64" "target-features"="+fxsr,+mmx,+sse,+sse2,+x87" "unsafe-fp-math"="false" "use-soft-float"="false" }
attributes #9 = { noreturn "correctly-rounded-divide-sqrt-fp-math"="false" "disable-tail-calls"="false" "less-precise-fpmad"="false" "no-frame-pointer-elim"="true" "no-frame-pointer-elim-non-leaf" "no-infs-fp-math"="false" "no-nans-fp-math"="false" "no-signed-zeros-fp-math"="false" "no-trapping-math"="false" "stack-protector-buffer-size"="8" "target-cpu"="x86-64" "target-features"="+fxsr,+mmx,+sse,+sse2,+x87" "unsafe-fp-math"="false" "use-soft-float"="false" }
attributes #10 = { noinline noreturn nounwind }
attributes #11 = { builtin }
attributes #12 = { builtin nounwind }
attributes #13 = { noreturn nounwind }
attributes #14 = { noreturn }

!llvm.module.flags = !{!0}
!llvm.ident = !{!1}

!0 = !{i32 1, !"wchar_size", i32 4}
!1 = !{!"clang version 8.0.1 "}
