; ModuleID = 'PE-benchmarks/sort-n-numbers-range-0-n2-1-linear-time.cpp'
source_filename = "PE-benchmarks/sort-n-numbers-range-0-n2-1-linear-time.cpp"
target datalayout = "e-m:e-p270:32:32-p271:32:32-p272:64:64-i64:64-f80:128-n8:16:32:64-S128"
target triple = "x86_64-pc-linux-gnu"

%"class.std::ios_base::Init" = type { i8 }
%"class.std::basic_ostream" = type { i32 (...)**, %"class.std::basic_ios" }
%"class.std::basic_ios" = type { %"class.std::ios_base", %"class.std::basic_ostream"*, i8, i8, %"class.std::basic_streambuf"*, %"class.std::ctype"*, %"class.std::num_put"*, %"class.std::num_get"* }
%"class.std::ios_base" = type { i32 (...)**, i64, i64, i32, i32, i32, %"struct.std::ios_base::_Callback_list"*, %"struct.std::ios_base::_Words", [8 x %"struct.std::ios_base::_Words"], i32, %"struct.std::ios_base::_Words"*, %"class.std::locale" }
%"struct.std::ios_base::_Callback_list" = type { %"struct.std::ios_base::_Callback_list"*, void (i32, %"class.std::ios_base"*, i32)*, i32, i32 }
%"struct.std::ios_base::_Words" = type { i8*, i64 }
%"class.std::locale" = type { %"class.std::locale::_Impl"* }
%"class.std::locale::_Impl" = type { i32, %"class.std::locale::facet"**, i64, %"class.std::locale::facet"**, i8** }
%"class.std::locale::facet" = type <{ i32 (...)**, i32, [4 x i8] }>
%"class.std::basic_streambuf" = type { i32 (...)**, i8*, i8*, i8*, i8*, i8*, i8*, %"class.std::locale" }
%"class.std::ctype" = type <{ %"class.std::locale::facet.base", [4 x i8], %struct.__locale_struct*, i8, [7 x i8], i32*, i32*, i16*, i8, [256 x i8], [256 x i8], i8, [6 x i8] }>
%"class.std::locale::facet.base" = type <{ i32 (...)**, i32 }>
%struct.__locale_struct = type { [13 x %struct.__locale_data*], i16*, i32*, i32*, [13 x i8*] }
%struct.__locale_data = type opaque
%"class.std::num_put" = type { %"class.std::locale::facet.base", [4 x i8] }
%"class.std::num_get" = type { %"class.std::locale::facet.base", [4 x i8] }

@_ZStL8__ioinit = internal global %"class.std::ios_base::Init" zeroinitializer, align 1
@__dso_handle = external hidden global i8
@_ZSt4cout = external dso_local global %"class.std::basic_ostream", align 8
@.str = private unnamed_addr constant [2 x i8] c" \00", align 1
@__const.main.arr = private unnamed_addr constant [7 x i32] [i32 40, i32 12, i32 45, i32 32, i32 33, i32 1, i32 22], align 16
@.str.1 = private unnamed_addr constant [17 x i8] c"Given array is n\00", align 1
@.str.2 = private unnamed_addr constant [19 x i8] c"nSorted array is n\00", align 1
@llvm.global_ctors = appending global [1 x { i32, void ()*, i8* }] [{ i32, void ()*, i8* } { i32 65535, void ()* @_GLOBAL__sub_I_sort_n_numbers_range_0_n2_1_linear_time.cpp, i8* null }]

; Function Attrs: noinline uwtable
define internal void @__cxx_global_var_init() #0 section ".text.startup" {
  call void @_ZNSt8ios_base4InitC1Ev(%"class.std::ios_base::Init"* nonnull dereferenceable(1) @_ZStL8__ioinit)
  %1 = call i32 @__cxa_atexit(void (i8*)* bitcast (void (%"class.std::ios_base::Init"*)* @_ZNSt8ios_base4InitD1Ev to void (i8*)*), i8* getelementptr inbounds (%"class.std::ios_base::Init", %"class.std::ios_base::Init"* @_ZStL8__ioinit, i32 0, i32 0), i8* @__dso_handle) #3
  ret void
}

declare dso_local void @_ZNSt8ios_base4InitC1Ev(%"class.std::ios_base::Init"* nonnull dereferenceable(1)) unnamed_addr #1

; Function Attrs: nounwind
declare dso_local void @_ZNSt8ios_base4InitD1Ev(%"class.std::ios_base::Init"* nonnull dereferenceable(1)) unnamed_addr #2

; Function Attrs: nounwind
declare dso_local i32 @__cxa_atexit(void (i8*)*, i8*, i8*) #3

; Function Attrs: noinline nounwind uwtable mustprogress
define dso_local i32 @_Z9countSortPiii(i32* %0, i32 %1, i32 %2) #4 {
  %4 = alloca i32*, align 8
  %5 = alloca i32, align 4
  %6 = alloca i32, align 4
  %7 = alloca i8*, align 8
  %8 = alloca i64, align 8
  %9 = alloca i32, align 4
  %10 = alloca i64, align 8
  %11 = alloca i32, align 4
  store i32* %0, i32** %4, align 8
  store i32 %1, i32* %5, align 4
  store i32 %2, i32* %6, align 4
  %12 = load i32, i32* %5, align 4
  %13 = zext i32 %12 to i64
  %14 = call i8* @llvm.stacksave()
  store i8* %14, i8** %7, align 8
  %15 = alloca i32, i64 %13, align 16
  store i64 %13, i64* %8, align 8
  %16 = load i32, i32* %5, align 4
  %17 = zext i32 %16 to i64
  %18 = alloca i32, i64 %17, align 16
  store i64 %17, i64* %10, align 8
  store i32 0, i32* %11, align 4
  br label %19

19:                                               ; preds = %27, %3
  %20 = load i32, i32* %11, align 4
  %21 = load i32, i32* %5, align 4
  %22 = icmp slt i32 %20, %21
  br i1 %22, label %23, label %30

23:                                               ; preds = %19
  %24 = load i32, i32* %11, align 4
  %25 = sext i32 %24 to i64
  %26 = getelementptr inbounds i32, i32* %18, i64 %25
  store i32 0, i32* %26, align 4
  br label %27

27:                                               ; preds = %23
  %28 = load i32, i32* %11, align 4
  %29 = add nsw i32 %28, 1
  store i32 %29, i32* %11, align 4
  br label %19, !llvm.loop !2

30:                                               ; preds = %19
  store i32 0, i32* %9, align 4
  br label %31

31:                                               ; preds = %49, %30
  %32 = load i32, i32* %9, align 4
  %33 = load i32, i32* %5, align 4
  %34 = icmp slt i32 %32, %33
  br i1 %34, label %35, label %52

35:                                               ; preds = %31
  %36 = load i32*, i32** %4, align 8
  %37 = load i32, i32* %9, align 4
  %38 = sext i32 %37 to i64
  %39 = getelementptr inbounds i32, i32* %36, i64 %38
  %40 = load i32, i32* %39, align 4
  %41 = load i32, i32* %6, align 4
  %42 = sdiv i32 %40, %41
  %43 = load i32, i32* %5, align 4
  %44 = srem i32 %42, %43
  %45 = sext i32 %44 to i64
  %46 = getelementptr inbounds i32, i32* %18, i64 %45
  %47 = load i32, i32* %46, align 4
  %48 = add nsw i32 %47, 1
  store i32 %48, i32* %46, align 4
  br label %49

49:                                               ; preds = %35
  %50 = load i32, i32* %9, align 4
  %51 = add nsw i32 %50, 1
  store i32 %51, i32* %9, align 4
  br label %31, !llvm.loop !4

52:                                               ; preds = %31
  store i32 1, i32* %9, align 4
  br label %53

53:                                               ; preds = %68, %52
  %54 = load i32, i32* %9, align 4
  %55 = load i32, i32* %5, align 4
  %56 = icmp slt i32 %54, %55
  br i1 %56, label %57, label %71

57:                                               ; preds = %53
  %58 = load i32, i32* %9, align 4
  %59 = sub nsw i32 %58, 1
  %60 = sext i32 %59 to i64
  %61 = getelementptr inbounds i32, i32* %18, i64 %60
  %62 = load i32, i32* %61, align 4
  %63 = load i32, i32* %9, align 4
  %64 = sext i32 %63 to i64
  %65 = getelementptr inbounds i32, i32* %18, i64 %64
  %66 = load i32, i32* %65, align 4
  %67 = add nsw i32 %66, %62
  store i32 %67, i32* %65, align 4
  br label %68

68:                                               ; preds = %57
  %69 = load i32, i32* %9, align 4
  %70 = add nsw i32 %69, 1
  store i32 %70, i32* %9, align 4
  br label %53, !llvm.loop !5

71:                                               ; preds = %53
  %72 = load i32, i32* %5, align 4
  %73 = sub nsw i32 %72, 1
  store i32 %73, i32* %9, align 4
  br label %74

74:                                               ; preds = %111, %71
  %75 = load i32, i32* %9, align 4
  %76 = icmp sge i32 %75, 0
  br i1 %76, label %77, label %114

77:                                               ; preds = %74
  %78 = load i32*, i32** %4, align 8
  %79 = load i32, i32* %9, align 4
  %80 = sext i32 %79 to i64
  %81 = getelementptr inbounds i32, i32* %78, i64 %80
  %82 = load i32, i32* %81, align 4
  %83 = load i32*, i32** %4, align 8
  %84 = load i32, i32* %9, align 4
  %85 = sext i32 %84 to i64
  %86 = getelementptr inbounds i32, i32* %83, i64 %85
  %87 = load i32, i32* %86, align 4
  %88 = load i32, i32* %6, align 4
  %89 = sdiv i32 %87, %88
  %90 = load i32, i32* %5, align 4
  %91 = srem i32 %89, %90
  %92 = sext i32 %91 to i64
  %93 = getelementptr inbounds i32, i32* %18, i64 %92
  %94 = load i32, i32* %93, align 4
  %95 = sub nsw i32 %94, 1
  %96 = sext i32 %95 to i64
  %97 = getelementptr inbounds i32, i32* %15, i64 %96
  store i32 %82, i32* %97, align 4
  %98 = load i32*, i32** %4, align 8
  %99 = load i32, i32* %9, align 4
  %100 = sext i32 %99 to i64
  %101 = getelementptr inbounds i32, i32* %98, i64 %100
  %102 = load i32, i32* %101, align 4
  %103 = load i32, i32* %6, align 4
  %104 = sdiv i32 %102, %103
  %105 = load i32, i32* %5, align 4
  %106 = srem i32 %104, %105
  %107 = sext i32 %106 to i64
  %108 = getelementptr inbounds i32, i32* %18, i64 %107
  %109 = load i32, i32* %108, align 4
  %110 = add nsw i32 %109, -1
  store i32 %110, i32* %108, align 4
  br label %111

111:                                              ; preds = %77
  %112 = load i32, i32* %9, align 4
  %113 = add nsw i32 %112, -1
  store i32 %113, i32* %9, align 4
  br label %74, !llvm.loop !6

114:                                              ; preds = %74
  store i32 0, i32* %9, align 4
  br label %115

115:                                              ; preds = %128, %114
  %116 = load i32, i32* %9, align 4
  %117 = load i32, i32* %5, align 4
  %118 = icmp slt i32 %116, %117
  br i1 %118, label %119, label %131

119:                                              ; preds = %115
  %120 = load i32, i32* %9, align 4
  %121 = sext i32 %120 to i64
  %122 = getelementptr inbounds i32, i32* %15, i64 %121
  %123 = load i32, i32* %122, align 4
  %124 = load i32*, i32** %4, align 8
  %125 = load i32, i32* %9, align 4
  %126 = sext i32 %125 to i64
  %127 = getelementptr inbounds i32, i32* %124, i64 %126
  store i32 %123, i32* %127, align 4
  br label %128

128:                                              ; preds = %119
  %129 = load i32, i32* %9, align 4
  %130 = add nsw i32 %129, 1
  store i32 %130, i32* %9, align 4
  br label %115, !llvm.loop !7

131:                                              ; preds = %115
  call void @llvm.trap()
  unreachable
}

; Function Attrs: nofree nosync nounwind willreturn
declare i8* @llvm.stacksave() #5

; Function Attrs: cold noreturn nounwind
declare void @llvm.trap() #6

; Function Attrs: noinline nounwind uwtable mustprogress
define dso_local void @_Z4sortPii(i32* %0, i32 %1) #4 {
  %3 = alloca i32*, align 8
  %4 = alloca i32, align 4
  store i32* %0, i32** %3, align 8
  store i32 %1, i32* %4, align 4
  %5 = load i32*, i32** %3, align 8
  %6 = load i32, i32* %4, align 4
  %7 = call i32 @_Z9countSortPiii(i32* %5, i32 %6, i32 1)
  %8 = load i32*, i32** %3, align 8
  %9 = load i32, i32* %4, align 4
  %10 = load i32, i32* %4, align 4
  %11 = call i32 @_Z9countSortPiii(i32* %8, i32 %9, i32 %10)
  ret void
}

; Function Attrs: noinline uwtable mustprogress
define dso_local void @_Z8printArrPii(i32* %0, i32 %1) #7 {
  %3 = alloca i32*, align 8
  %4 = alloca i32, align 4
  %5 = alloca i32, align 4
  store i32* %0, i32** %3, align 8
  store i32 %1, i32* %4, align 4
  store i32 0, i32* %5, align 4
  br label %6

6:                                                ; preds = %18, %2
  %7 = load i32, i32* %5, align 4
  %8 = load i32, i32* %4, align 4
  %9 = icmp slt i32 %7, %8
  br i1 %9, label %10, label %21

10:                                               ; preds = %6
  %11 = load i32*, i32** %3, align 8
  %12 = load i32, i32* %5, align 4
  %13 = sext i32 %12 to i64
  %14 = getelementptr inbounds i32, i32* %11, i64 %13
  %15 = load i32, i32* %14, align 4
  %16 = call nonnull align 8 dereferenceable(8) %"class.std::basic_ostream"* @_ZNSolsEi(%"class.std::basic_ostream"* nonnull dereferenceable(8) @_ZSt4cout, i32 %15)
  %17 = call nonnull align 8 dereferenceable(8) %"class.std::basic_ostream"* @_ZStlsISt11char_traitsIcEERSt13basic_ostreamIcT_ES5_PKc(%"class.std::basic_ostream"* nonnull align 8 dereferenceable(8) %16, i8* getelementptr inbounds ([2 x i8], [2 x i8]* @.str, i64 0, i64 0))
  br label %18

18:                                               ; preds = %10
  %19 = load i32, i32* %5, align 4
  %20 = add nsw i32 %19, 1
  store i32 %20, i32* %5, align 4
  br label %6, !llvm.loop !8

21:                                               ; preds = %6
  ret void
}

declare dso_local nonnull align 8 dereferenceable(8) %"class.std::basic_ostream"* @_ZStlsISt11char_traitsIcEERSt13basic_ostreamIcT_ES5_PKc(%"class.std::basic_ostream"* nonnull align 8 dereferenceable(8), i8*) #1

declare dso_local nonnull align 8 dereferenceable(8) %"class.std::basic_ostream"* @_ZNSolsEi(%"class.std::basic_ostream"* nonnull dereferenceable(8), i32) #1

; Function Attrs: noinline norecurse uwtable mustprogress
define dso_local i32 @main() #8 {
  %1 = alloca i32, align 4
  %2 = alloca [7 x i32], align 16
  %3 = alloca i32, align 4
  store i32 0, i32* %1, align 4
  %4 = bitcast [7 x i32]* %2 to i8*
  call void @llvm.memcpy.p0i8.p0i8.i64(i8* align 16 %4, i8* align 16 bitcast ([7 x i32]* @__const.main.arr to i8*), i64 28, i1 false)
  store i32 7, i32* %3, align 4
  %5 = call nonnull align 8 dereferenceable(8) %"class.std::basic_ostream"* @_ZStlsISt11char_traitsIcEERSt13basic_ostreamIcT_ES5_PKc(%"class.std::basic_ostream"* nonnull align 8 dereferenceable(8) @_ZSt4cout, i8* getelementptr inbounds ([17 x i8], [17 x i8]* @.str.1, i64 0, i64 0))
  %6 = getelementptr inbounds [7 x i32], [7 x i32]* %2, i64 0, i64 0
  %7 = load i32, i32* %3, align 4
  call void @_Z8printArrPii(i32* %6, i32 %7)
  %8 = getelementptr inbounds [7 x i32], [7 x i32]* %2, i64 0, i64 0
  %9 = load i32, i32* %3, align 4
  call void @_Z4sortPii(i32* %8, i32 %9)
  %10 = call nonnull align 8 dereferenceable(8) %"class.std::basic_ostream"* @_ZStlsISt11char_traitsIcEERSt13basic_ostreamIcT_ES5_PKc(%"class.std::basic_ostream"* nonnull align 8 dereferenceable(8) @_ZSt4cout, i8* getelementptr inbounds ([19 x i8], [19 x i8]* @.str.2, i64 0, i64 0))
  %11 = getelementptr inbounds [7 x i32], [7 x i32]* %2, i64 0, i64 0
  %12 = load i32, i32* %3, align 4
  call void @_Z8printArrPii(i32* %11, i32 %12)
  ret i32 0
}

; Function Attrs: argmemonly nofree nosync nounwind willreturn
declare void @llvm.memcpy.p0i8.p0i8.i64(i8* noalias nocapture writeonly, i8* noalias nocapture readonly, i64, i1 immarg) #9

; Function Attrs: noinline uwtable
define internal void @_GLOBAL__sub_I_sort_n_numbers_range_0_n2_1_linear_time.cpp() #0 section ".text.startup" {
  call void @__cxx_global_var_init()
  ret void
}

attributes #0 = { noinline uwtable "disable-tail-calls"="false" "frame-pointer"="all" "less-precise-fpmad"="false" "min-legal-vector-width"="0" "no-infs-fp-math"="false" "no-jump-tables"="false" "no-nans-fp-math"="false" "no-signed-zeros-fp-math"="false" "no-trapping-math"="true" "stack-protector-buffer-size"="8" "target-cpu"="x86-64" "target-features"="+cx8,+fxsr,+mmx,+sse,+sse2,+x87" "tune-cpu"="generic" "unsafe-fp-math"="false" "use-soft-float"="false" }
attributes #1 = { "disable-tail-calls"="false" "frame-pointer"="all" "less-precise-fpmad"="false" "no-infs-fp-math"="false" "no-nans-fp-math"="false" "no-signed-zeros-fp-math"="false" "no-trapping-math"="true" "stack-protector-buffer-size"="8" "target-cpu"="x86-64" "target-features"="+cx8,+fxsr,+mmx,+sse,+sse2,+x87" "tune-cpu"="generic" "unsafe-fp-math"="false" "use-soft-float"="false" }
attributes #2 = { nounwind "disable-tail-calls"="false" "frame-pointer"="all" "less-precise-fpmad"="false" "no-infs-fp-math"="false" "no-nans-fp-math"="false" "no-signed-zeros-fp-math"="false" "no-trapping-math"="true" "stack-protector-buffer-size"="8" "target-cpu"="x86-64" "target-features"="+cx8,+fxsr,+mmx,+sse,+sse2,+x87" "tune-cpu"="generic" "unsafe-fp-math"="false" "use-soft-float"="false" }
attributes #3 = { nounwind }
attributes #4 = { noinline nounwind uwtable mustprogress "disable-tail-calls"="false" "frame-pointer"="all" "less-precise-fpmad"="false" "min-legal-vector-width"="0" "no-infs-fp-math"="false" "no-jump-tables"="false" "no-nans-fp-math"="false" "no-signed-zeros-fp-math"="false" "no-trapping-math"="true" "stack-protector-buffer-size"="8" "target-cpu"="x86-64" "target-features"="+cx8,+fxsr,+mmx,+sse,+sse2,+x87" "tune-cpu"="generic" "unsafe-fp-math"="false" "use-soft-float"="false" }
attributes #5 = { nofree nosync nounwind willreturn }
attributes #6 = { cold noreturn nounwind }
attributes #7 = { noinline uwtable mustprogress "disable-tail-calls"="false" "frame-pointer"="all" "less-precise-fpmad"="false" "min-legal-vector-width"="0" "no-infs-fp-math"="false" "no-jump-tables"="false" "no-nans-fp-math"="false" "no-signed-zeros-fp-math"="false" "no-trapping-math"="true" "stack-protector-buffer-size"="8" "target-cpu"="x86-64" "target-features"="+cx8,+fxsr,+mmx,+sse,+sse2,+x87" "tune-cpu"="generic" "unsafe-fp-math"="false" "use-soft-float"="false" }
attributes #8 = { noinline norecurse uwtable mustprogress "disable-tail-calls"="false" "frame-pointer"="all" "less-precise-fpmad"="false" "min-legal-vector-width"="0" "no-infs-fp-math"="false" "no-jump-tables"="false" "no-nans-fp-math"="false" "no-signed-zeros-fp-math"="false" "no-trapping-math"="true" "stack-protector-buffer-size"="8" "target-cpu"="x86-64" "target-features"="+cx8,+fxsr,+mmx,+sse,+sse2,+x87" "tune-cpu"="generic" "unsafe-fp-math"="false" "use-soft-float"="false" }
attributes #9 = { argmemonly nofree nosync nounwind willreturn }

!llvm.module.flags = !{!0}
!llvm.ident = !{!1}

!0 = !{i32 1, !"wchar_size", i32 4}
!1 = !{!"Ubuntu clang version 12.0.0-++20210402082642+04ba60cfe598-1~exp1~20210402063359.71"}
!2 = distinct !{!2, !3}
!3 = !{!"llvm.loop.mustprogress"}
!4 = distinct !{!4, !3}
!5 = distinct !{!5, !3}
!6 = distinct !{!6, !3}
!7 = distinct !{!7, !3}
!8 = distinct !{!8, !3}
